
CelClock_2021.elf:     file format elf32-littlearm

Sections:
Idx Name          Size      VMA       LMA       File off  Algn
  0 .isr_vector   000000bc  08000000  08000000  00010000  2**0
                  CONTENTS, ALLOC, LOAD, READONLY, DATA
  1 .text         00003298  080000bc  080000bc  000100bc  2**2
                  CONTENTS, ALLOC, LOAD, READONLY, CODE
  2 .rodata       000000b8  08003354  08003354  00013354  2**2
                  CONTENTS, ALLOC, LOAD, READONLY, DATA
  3 .ARM.extab    00000000  0800340c  0800340c  00020028  2**0
                  CONTENTS
  4 .ARM          00000000  0800340c  0800340c  00020028  2**0
                  CONTENTS
  5 .preinit_array 00000000  0800340c  0800340c  00020028  2**0
                  CONTENTS, ALLOC, LOAD, DATA
  6 .init_array   00000004  0800340c  0800340c  0001340c  2**2
                  CONTENTS, ALLOC, LOAD, DATA
  7 .fini_array   00000004  08003410  08003410  00013410  2**2
                  CONTENTS, ALLOC, LOAD, DATA
  8 .data         00000028  20000000  08003414  00020000  2**2
                  CONTENTS, ALLOC, LOAD, DATA
  9 .bss          0000058c  20000028  0800343c  00020028  2**2
                  ALLOC
 10 ._user_heap_stack 00000604  200005b4  0800343c  000205b4  2**0
                  ALLOC
 11 .ARM.attributes 00000028  00000000  00000000  00020028  2**0
                  CONTENTS, READONLY
 12 .debug_info   000066b4  00000000  00000000  00020050  2**0
                  CONTENTS, READONLY, DEBUGGING
 13 .debug_abbrev 00000e97  00000000  00000000  00026704  2**0
                  CONTENTS, READONLY, DEBUGGING
 14 .debug_aranges 00000218  00000000  00000000  000275a0  2**3
                  CONTENTS, READONLY, DEBUGGING
 15 .debug_ranges 000001a0  00000000  00000000  000277b8  2**3
                  CONTENTS, READONLY, DEBUGGING
 16 .debug_macro  0000fd8e  00000000  00000000  00027958  2**0
                  CONTENTS, READONLY, DEBUGGING
 17 .debug_line   000036b3  00000000  00000000  000376e6  2**0
                  CONTENTS, READONLY, DEBUGGING
 18 .debug_str    00053604  00000000  00000000  0003ad99  2**0
                  CONTENTS, READONLY, DEBUGGING
 19 .comment      0000007b  00000000  00000000  0008e39d  2**0
                  CONTENTS, READONLY
 20 .debug_frame  00000620  00000000  00000000  0008e418  2**2
                  CONTENTS, READONLY, DEBUGGING

Disassembly of section .text:

080000bc <__do_global_dtors_aux>:
 80000bc:	b510      	push	{r4, lr}
 80000be:	4c06      	ldr	r4, [pc, #24]	; (80000d8 <__do_global_dtors_aux+0x1c>)
 80000c0:	7823      	ldrb	r3, [r4, #0]
 80000c2:	2b00      	cmp	r3, #0
 80000c4:	d107      	bne.n	80000d6 <__do_global_dtors_aux+0x1a>
 80000c6:	4b05      	ldr	r3, [pc, #20]	; (80000dc <__do_global_dtors_aux+0x20>)
 80000c8:	2b00      	cmp	r3, #0
 80000ca:	d002      	beq.n	80000d2 <__do_global_dtors_aux+0x16>
 80000cc:	4804      	ldr	r0, [pc, #16]	; (80000e0 <__do_global_dtors_aux+0x24>)
 80000ce:	e000      	b.n	80000d2 <__do_global_dtors_aux+0x16>
 80000d0:	bf00      	nop
 80000d2:	2301      	movs	r3, #1
 80000d4:	7023      	strb	r3, [r4, #0]
 80000d6:	bd10      	pop	{r4, pc}
 80000d8:	20000028 	.word	0x20000028
 80000dc:	00000000 	.word	0x00000000
 80000e0:	0800333c 	.word	0x0800333c

080000e4 <frame_dummy>:
 80000e4:	4b04      	ldr	r3, [pc, #16]	; (80000f8 <frame_dummy+0x14>)
 80000e6:	b510      	push	{r4, lr}
 80000e8:	2b00      	cmp	r3, #0
 80000ea:	d003      	beq.n	80000f4 <frame_dummy+0x10>
 80000ec:	4903      	ldr	r1, [pc, #12]	; (80000fc <frame_dummy+0x18>)
 80000ee:	4804      	ldr	r0, [pc, #16]	; (8000100 <frame_dummy+0x1c>)
 80000f0:	e000      	b.n	80000f4 <frame_dummy+0x10>
 80000f2:	bf00      	nop
 80000f4:	bd10      	pop	{r4, pc}
 80000f6:	46c0      	nop			; (mov r8, r8)
 80000f8:	00000000 	.word	0x00000000
 80000fc:	2000002c 	.word	0x2000002c
 8000100:	0800333c 	.word	0x0800333c

08000104 <__udivsi3>:
 8000104:	2200      	movs	r2, #0
 8000106:	0843      	lsrs	r3, r0, #1
 8000108:	428b      	cmp	r3, r1
 800010a:	d374      	bcc.n	80001f6 <__udivsi3+0xf2>
 800010c:	0903      	lsrs	r3, r0, #4
 800010e:	428b      	cmp	r3, r1
 8000110:	d35f      	bcc.n	80001d2 <__udivsi3+0xce>
 8000112:	0a03      	lsrs	r3, r0, #8
 8000114:	428b      	cmp	r3, r1
 8000116:	d344      	bcc.n	80001a2 <__udivsi3+0x9e>
 8000118:	0b03      	lsrs	r3, r0, #12
 800011a:	428b      	cmp	r3, r1
 800011c:	d328      	bcc.n	8000170 <__udivsi3+0x6c>
 800011e:	0c03      	lsrs	r3, r0, #16
 8000120:	428b      	cmp	r3, r1
 8000122:	d30d      	bcc.n	8000140 <__udivsi3+0x3c>
 8000124:	22ff      	movs	r2, #255	; 0xff
 8000126:	0209      	lsls	r1, r1, #8
 8000128:	ba12      	rev	r2, r2
 800012a:	0c03      	lsrs	r3, r0, #16
 800012c:	428b      	cmp	r3, r1
 800012e:	d302      	bcc.n	8000136 <__udivsi3+0x32>
 8000130:	1212      	asrs	r2, r2, #8
 8000132:	0209      	lsls	r1, r1, #8
 8000134:	d065      	beq.n	8000202 <__udivsi3+0xfe>
 8000136:	0b03      	lsrs	r3, r0, #12
 8000138:	428b      	cmp	r3, r1
 800013a:	d319      	bcc.n	8000170 <__udivsi3+0x6c>
 800013c:	e000      	b.n	8000140 <__udivsi3+0x3c>
 800013e:	0a09      	lsrs	r1, r1, #8
 8000140:	0bc3      	lsrs	r3, r0, #15
 8000142:	428b      	cmp	r3, r1
 8000144:	d301      	bcc.n	800014a <__udivsi3+0x46>
 8000146:	03cb      	lsls	r3, r1, #15
 8000148:	1ac0      	subs	r0, r0, r3
 800014a:	4152      	adcs	r2, r2
 800014c:	0b83      	lsrs	r3, r0, #14
 800014e:	428b      	cmp	r3, r1
 8000150:	d301      	bcc.n	8000156 <__udivsi3+0x52>
 8000152:	038b      	lsls	r3, r1, #14
 8000154:	1ac0      	subs	r0, r0, r3
 8000156:	4152      	adcs	r2, r2
 8000158:	0b43      	lsrs	r3, r0, #13
 800015a:	428b      	cmp	r3, r1
 800015c:	d301      	bcc.n	8000162 <__udivsi3+0x5e>
 800015e:	034b      	lsls	r3, r1, #13
 8000160:	1ac0      	subs	r0, r0, r3
 8000162:	4152      	adcs	r2, r2
 8000164:	0b03      	lsrs	r3, r0, #12
 8000166:	428b      	cmp	r3, r1
 8000168:	d301      	bcc.n	800016e <__udivsi3+0x6a>
 800016a:	030b      	lsls	r3, r1, #12
 800016c:	1ac0      	subs	r0, r0, r3
 800016e:	4152      	adcs	r2, r2
 8000170:	0ac3      	lsrs	r3, r0, #11
 8000172:	428b      	cmp	r3, r1
 8000174:	d301      	bcc.n	800017a <__udivsi3+0x76>
 8000176:	02cb      	lsls	r3, r1, #11
 8000178:	1ac0      	subs	r0, r0, r3
 800017a:	4152      	adcs	r2, r2
 800017c:	0a83      	lsrs	r3, r0, #10
 800017e:	428b      	cmp	r3, r1
 8000180:	d301      	bcc.n	8000186 <__udivsi3+0x82>
 8000182:	028b      	lsls	r3, r1, #10
 8000184:	1ac0      	subs	r0, r0, r3
 8000186:	4152      	adcs	r2, r2
 8000188:	0a43      	lsrs	r3, r0, #9
 800018a:	428b      	cmp	r3, r1
 800018c:	d301      	bcc.n	8000192 <__udivsi3+0x8e>
 800018e:	024b      	lsls	r3, r1, #9
 8000190:	1ac0      	subs	r0, r0, r3
 8000192:	4152      	adcs	r2, r2
 8000194:	0a03      	lsrs	r3, r0, #8
 8000196:	428b      	cmp	r3, r1
 8000198:	d301      	bcc.n	800019e <__udivsi3+0x9a>
 800019a:	020b      	lsls	r3, r1, #8
 800019c:	1ac0      	subs	r0, r0, r3
 800019e:	4152      	adcs	r2, r2
 80001a0:	d2cd      	bcs.n	800013e <__udivsi3+0x3a>
 80001a2:	09c3      	lsrs	r3, r0, #7
 80001a4:	428b      	cmp	r3, r1
 80001a6:	d301      	bcc.n	80001ac <__udivsi3+0xa8>
 80001a8:	01cb      	lsls	r3, r1, #7
 80001aa:	1ac0      	subs	r0, r0, r3
 80001ac:	4152      	adcs	r2, r2
 80001ae:	0983      	lsrs	r3, r0, #6
 80001b0:	428b      	cmp	r3, r1
 80001b2:	d301      	bcc.n	80001b8 <__udivsi3+0xb4>
 80001b4:	018b      	lsls	r3, r1, #6
 80001b6:	1ac0      	subs	r0, r0, r3
 80001b8:	4152      	adcs	r2, r2
 80001ba:	0943      	lsrs	r3, r0, #5
 80001bc:	428b      	cmp	r3, r1
 80001be:	d301      	bcc.n	80001c4 <__udivsi3+0xc0>
 80001c0:	014b      	lsls	r3, r1, #5
 80001c2:	1ac0      	subs	r0, r0, r3
 80001c4:	4152      	adcs	r2, r2
 80001c6:	0903      	lsrs	r3, r0, #4
 80001c8:	428b      	cmp	r3, r1
 80001ca:	d301      	bcc.n	80001d0 <__udivsi3+0xcc>
 80001cc:	010b      	lsls	r3, r1, #4
 80001ce:	1ac0      	subs	r0, r0, r3
 80001d0:	4152      	adcs	r2, r2
 80001d2:	08c3      	lsrs	r3, r0, #3
 80001d4:	428b      	cmp	r3, r1
 80001d6:	d301      	bcc.n	80001dc <__udivsi3+0xd8>
 80001d8:	00cb      	lsls	r3, r1, #3
 80001da:	1ac0      	subs	r0, r0, r3
 80001dc:	4152      	adcs	r2, r2
 80001de:	0883      	lsrs	r3, r0, #2
 80001e0:	428b      	cmp	r3, r1
 80001e2:	d301      	bcc.n	80001e8 <__udivsi3+0xe4>
 80001e4:	008b      	lsls	r3, r1, #2
 80001e6:	1ac0      	subs	r0, r0, r3
 80001e8:	4152      	adcs	r2, r2
 80001ea:	0843      	lsrs	r3, r0, #1
 80001ec:	428b      	cmp	r3, r1
 80001ee:	d301      	bcc.n	80001f4 <__udivsi3+0xf0>
 80001f0:	004b      	lsls	r3, r1, #1
 80001f2:	1ac0      	subs	r0, r0, r3
 80001f4:	4152      	adcs	r2, r2
 80001f6:	1a41      	subs	r1, r0, r1
 80001f8:	d200      	bcs.n	80001fc <__udivsi3+0xf8>
 80001fa:	4601      	mov	r1, r0
 80001fc:	4152      	adcs	r2, r2
 80001fe:	4610      	mov	r0, r2
 8000200:	4770      	bx	lr
 8000202:	e7ff      	b.n	8000204 <__udivsi3+0x100>
 8000204:	b501      	push	{r0, lr}
 8000206:	2000      	movs	r0, #0
 8000208:	f000 f8f0 	bl	80003ec <__aeabi_idiv0>
 800020c:	bd02      	pop	{r1, pc}
 800020e:	46c0      	nop			; (mov r8, r8)

08000210 <__aeabi_uidivmod>:
 8000210:	2900      	cmp	r1, #0
 8000212:	d0f7      	beq.n	8000204 <__udivsi3+0x100>
 8000214:	e776      	b.n	8000104 <__udivsi3>
 8000216:	4770      	bx	lr

08000218 <__divsi3>:
 8000218:	4603      	mov	r3, r0
 800021a:	430b      	orrs	r3, r1
 800021c:	d47f      	bmi.n	800031e <__divsi3+0x106>
 800021e:	2200      	movs	r2, #0
 8000220:	0843      	lsrs	r3, r0, #1
 8000222:	428b      	cmp	r3, r1
 8000224:	d374      	bcc.n	8000310 <__divsi3+0xf8>
 8000226:	0903      	lsrs	r3, r0, #4
 8000228:	428b      	cmp	r3, r1
 800022a:	d35f      	bcc.n	80002ec <__divsi3+0xd4>
 800022c:	0a03      	lsrs	r3, r0, #8
 800022e:	428b      	cmp	r3, r1
 8000230:	d344      	bcc.n	80002bc <__divsi3+0xa4>
 8000232:	0b03      	lsrs	r3, r0, #12
 8000234:	428b      	cmp	r3, r1
 8000236:	d328      	bcc.n	800028a <__divsi3+0x72>
 8000238:	0c03      	lsrs	r3, r0, #16
 800023a:	428b      	cmp	r3, r1
 800023c:	d30d      	bcc.n	800025a <__divsi3+0x42>
 800023e:	22ff      	movs	r2, #255	; 0xff
 8000240:	0209      	lsls	r1, r1, #8
 8000242:	ba12      	rev	r2, r2
 8000244:	0c03      	lsrs	r3, r0, #16
 8000246:	428b      	cmp	r3, r1
 8000248:	d302      	bcc.n	8000250 <__divsi3+0x38>
 800024a:	1212      	asrs	r2, r2, #8
 800024c:	0209      	lsls	r1, r1, #8
 800024e:	d065      	beq.n	800031c <__divsi3+0x104>
 8000250:	0b03      	lsrs	r3, r0, #12
 8000252:	428b      	cmp	r3, r1
 8000254:	d319      	bcc.n	800028a <__divsi3+0x72>
 8000256:	e000      	b.n	800025a <__divsi3+0x42>
 8000258:	0a09      	lsrs	r1, r1, #8
 800025a:	0bc3      	lsrs	r3, r0, #15
 800025c:	428b      	cmp	r3, r1
 800025e:	d301      	bcc.n	8000264 <__divsi3+0x4c>
 8000260:	03cb      	lsls	r3, r1, #15
 8000262:	1ac0      	subs	r0, r0, r3
 8000264:	4152      	adcs	r2, r2
 8000266:	0b83      	lsrs	r3, r0, #14
 8000268:	428b      	cmp	r3, r1
 800026a:	d301      	bcc.n	8000270 <__divsi3+0x58>
 800026c:	038b      	lsls	r3, r1, #14
 800026e:	1ac0      	subs	r0, r0, r3
 8000270:	4152      	adcs	r2, r2
 8000272:	0b43      	lsrs	r3, r0, #13
 8000274:	428b      	cmp	r3, r1
 8000276:	d301      	bcc.n	800027c <__divsi3+0x64>
 8000278:	034b      	lsls	r3, r1, #13
 800027a:	1ac0      	subs	r0, r0, r3
 800027c:	4152      	adcs	r2, r2
 800027e:	0b03      	lsrs	r3, r0, #12
 8000280:	428b      	cmp	r3, r1
 8000282:	d301      	bcc.n	8000288 <__divsi3+0x70>
 8000284:	030b      	lsls	r3, r1, #12
 8000286:	1ac0      	subs	r0, r0, r3
 8000288:	4152      	adcs	r2, r2
 800028a:	0ac3      	lsrs	r3, r0, #11
 800028c:	428b      	cmp	r3, r1
 800028e:	d301      	bcc.n	8000294 <__divsi3+0x7c>
 8000290:	02cb      	lsls	r3, r1, #11
 8000292:	1ac0      	subs	r0, r0, r3
 8000294:	4152      	adcs	r2, r2
 8000296:	0a83      	lsrs	r3, r0, #10
 8000298:	428b      	cmp	r3, r1
 800029a:	d301      	bcc.n	80002a0 <__divsi3+0x88>
 800029c:	028b      	lsls	r3, r1, #10
 800029e:	1ac0      	subs	r0, r0, r3
 80002a0:	4152      	adcs	r2, r2
 80002a2:	0a43      	lsrs	r3, r0, #9
 80002a4:	428b      	cmp	r3, r1
 80002a6:	d301      	bcc.n	80002ac <__divsi3+0x94>
 80002a8:	024b      	lsls	r3, r1, #9
 80002aa:	1ac0      	subs	r0, r0, r3
 80002ac:	4152      	adcs	r2, r2
 80002ae:	0a03      	lsrs	r3, r0, #8
 80002b0:	428b      	cmp	r3, r1
 80002b2:	d301      	bcc.n	80002b8 <__divsi3+0xa0>
 80002b4:	020b      	lsls	r3, r1, #8
 80002b6:	1ac0      	subs	r0, r0, r3
 80002b8:	4152      	adcs	r2, r2
 80002ba:	d2cd      	bcs.n	8000258 <__divsi3+0x40>
 80002bc:	09c3      	lsrs	r3, r0, #7
 80002be:	428b      	cmp	r3, r1
 80002c0:	d301      	bcc.n	80002c6 <__divsi3+0xae>
 80002c2:	01cb      	lsls	r3, r1, #7
 80002c4:	1ac0      	subs	r0, r0, r3
 80002c6:	4152      	adcs	r2, r2
 80002c8:	0983      	lsrs	r3, r0, #6
 80002ca:	428b      	cmp	r3, r1
 80002cc:	d301      	bcc.n	80002d2 <__divsi3+0xba>
 80002ce:	018b      	lsls	r3, r1, #6
 80002d0:	1ac0      	subs	r0, r0, r3
 80002d2:	4152      	adcs	r2, r2
 80002d4:	0943      	lsrs	r3, r0, #5
 80002d6:	428b      	cmp	r3, r1
 80002d8:	d301      	bcc.n	80002de <__divsi3+0xc6>
 80002da:	014b      	lsls	r3, r1, #5
 80002dc:	1ac0      	subs	r0, r0, r3
 80002de:	4152      	adcs	r2, r2
 80002e0:	0903      	lsrs	r3, r0, #4
 80002e2:	428b      	cmp	r3, r1
 80002e4:	d301      	bcc.n	80002ea <__divsi3+0xd2>
 80002e6:	010b      	lsls	r3, r1, #4
 80002e8:	1ac0      	subs	r0, r0, r3
 80002ea:	4152      	adcs	r2, r2
 80002ec:	08c3      	lsrs	r3, r0, #3
 80002ee:	428b      	cmp	r3, r1
 80002f0:	d301      	bcc.n	80002f6 <__divsi3+0xde>
 80002f2:	00cb      	lsls	r3, r1, #3
 80002f4:	1ac0      	subs	r0, r0, r3
 80002f6:	4152      	adcs	r2, r2
 80002f8:	0883      	lsrs	r3, r0, #2
 80002fa:	428b      	cmp	r3, r1
 80002fc:	d301      	bcc.n	8000302 <__divsi3+0xea>
 80002fe:	008b      	lsls	r3, r1, #2
 8000300:	1ac0      	subs	r0, r0, r3
 8000302:	4152      	adcs	r2, r2
 8000304:	0843      	lsrs	r3, r0, #1
 8000306:	428b      	cmp	r3, r1
 8000308:	d301      	bcc.n	800030e <__divsi3+0xf6>
 800030a:	004b      	lsls	r3, r1, #1
 800030c:	1ac0      	subs	r0, r0, r3
 800030e:	4152      	adcs	r2, r2
 8000310:	1a41      	subs	r1, r0, r1
 8000312:	d200      	bcs.n	8000316 <__divsi3+0xfe>
 8000314:	4601      	mov	r1, r0
 8000316:	4152      	adcs	r2, r2
 8000318:	4610      	mov	r0, r2
 800031a:	4770      	bx	lr
 800031c:	e05d      	b.n	80003da <__divsi3+0x1c2>
 800031e:	0fca      	lsrs	r2, r1, #31
 8000320:	d000      	beq.n	8000324 <__divsi3+0x10c>
 8000322:	4249      	negs	r1, r1
 8000324:	1003      	asrs	r3, r0, #32
 8000326:	d300      	bcc.n	800032a <__divsi3+0x112>
 8000328:	4240      	negs	r0, r0
 800032a:	4053      	eors	r3, r2
 800032c:	2200      	movs	r2, #0
 800032e:	469c      	mov	ip, r3
 8000330:	0903      	lsrs	r3, r0, #4
 8000332:	428b      	cmp	r3, r1
 8000334:	d32d      	bcc.n	8000392 <__divsi3+0x17a>
 8000336:	0a03      	lsrs	r3, r0, #8
 8000338:	428b      	cmp	r3, r1
 800033a:	d312      	bcc.n	8000362 <__divsi3+0x14a>
 800033c:	22fc      	movs	r2, #252	; 0xfc
 800033e:	0189      	lsls	r1, r1, #6
 8000340:	ba12      	rev	r2, r2
 8000342:	0a03      	lsrs	r3, r0, #8
 8000344:	428b      	cmp	r3, r1
 8000346:	d30c      	bcc.n	8000362 <__divsi3+0x14a>
 8000348:	0189      	lsls	r1, r1, #6
 800034a:	1192      	asrs	r2, r2, #6
 800034c:	428b      	cmp	r3, r1
 800034e:	d308      	bcc.n	8000362 <__divsi3+0x14a>
 8000350:	0189      	lsls	r1, r1, #6
 8000352:	1192      	asrs	r2, r2, #6
 8000354:	428b      	cmp	r3, r1
 8000356:	d304      	bcc.n	8000362 <__divsi3+0x14a>
 8000358:	0189      	lsls	r1, r1, #6
 800035a:	d03a      	beq.n	80003d2 <__divsi3+0x1ba>
 800035c:	1192      	asrs	r2, r2, #6
 800035e:	e000      	b.n	8000362 <__divsi3+0x14a>
 8000360:	0989      	lsrs	r1, r1, #6
 8000362:	09c3      	lsrs	r3, r0, #7
 8000364:	428b      	cmp	r3, r1
 8000366:	d301      	bcc.n	800036c <__divsi3+0x154>
 8000368:	01cb      	lsls	r3, r1, #7
 800036a:	1ac0      	subs	r0, r0, r3
 800036c:	4152      	adcs	r2, r2
 800036e:	0983      	lsrs	r3, r0, #6
 8000370:	428b      	cmp	r3, r1
 8000372:	d301      	bcc.n	8000378 <__divsi3+0x160>
 8000374:	018b      	lsls	r3, r1, #6
 8000376:	1ac0      	subs	r0, r0, r3
 8000378:	4152      	adcs	r2, r2
 800037a:	0943      	lsrs	r3, r0, #5
 800037c:	428b      	cmp	r3, r1
 800037e:	d301      	bcc.n	8000384 <__divsi3+0x16c>
 8000380:	014b      	lsls	r3, r1, #5
 8000382:	1ac0      	subs	r0, r0, r3
 8000384:	4152      	adcs	r2, r2
 8000386:	0903      	lsrs	r3, r0, #4
 8000388:	428b      	cmp	r3, r1
 800038a:	d301      	bcc.n	8000390 <__divsi3+0x178>
 800038c:	010b      	lsls	r3, r1, #4
 800038e:	1ac0      	subs	r0, r0, r3
 8000390:	4152      	adcs	r2, r2
 8000392:	08c3      	lsrs	r3, r0, #3
 8000394:	428b      	cmp	r3, r1
 8000396:	d301      	bcc.n	800039c <__divsi3+0x184>
 8000398:	00cb      	lsls	r3, r1, #3
 800039a:	1ac0      	subs	r0, r0, r3
 800039c:	4152      	adcs	r2, r2
 800039e:	0883      	lsrs	r3, r0, #2
 80003a0:	428b      	cmp	r3, r1
 80003a2:	d301      	bcc.n	80003a8 <__divsi3+0x190>
 80003a4:	008b      	lsls	r3, r1, #2
 80003a6:	1ac0      	subs	r0, r0, r3
 80003a8:	4152      	adcs	r2, r2
 80003aa:	d2d9      	bcs.n	8000360 <__divsi3+0x148>
 80003ac:	0843      	lsrs	r3, r0, #1
 80003ae:	428b      	cmp	r3, r1
 80003b0:	d301      	bcc.n	80003b6 <__divsi3+0x19e>
 80003b2:	004b      	lsls	r3, r1, #1
 80003b4:	1ac0      	subs	r0, r0, r3
 80003b6:	4152      	adcs	r2, r2
 80003b8:	1a41      	subs	r1, r0, r1
 80003ba:	d200      	bcs.n	80003be <__divsi3+0x1a6>
 80003bc:	4601      	mov	r1, r0
 80003be:	4663      	mov	r3, ip
 80003c0:	4152      	adcs	r2, r2
 80003c2:	105b      	asrs	r3, r3, #1
 80003c4:	4610      	mov	r0, r2
 80003c6:	d301      	bcc.n	80003cc <__divsi3+0x1b4>
 80003c8:	4240      	negs	r0, r0
 80003ca:	2b00      	cmp	r3, #0
 80003cc:	d500      	bpl.n	80003d0 <__divsi3+0x1b8>
 80003ce:	4249      	negs	r1, r1
 80003d0:	4770      	bx	lr
 80003d2:	4663      	mov	r3, ip
 80003d4:	105b      	asrs	r3, r3, #1
 80003d6:	d300      	bcc.n	80003da <__divsi3+0x1c2>
 80003d8:	4240      	negs	r0, r0
 80003da:	b501      	push	{r0, lr}
 80003dc:	2000      	movs	r0, #0
 80003de:	f000 f805 	bl	80003ec <__aeabi_idiv0>
 80003e2:	bd02      	pop	{r1, pc}

080003e4 <__aeabi_idivmod>:
 80003e4:	2900      	cmp	r1, #0
 80003e6:	d0f8      	beq.n	80003da <__divsi3+0x1c2>
 80003e8:	e716      	b.n	8000218 <__divsi3>
 80003ea:	4770      	bx	lr

080003ec <__aeabi_idiv0>:
 80003ec:	4770      	bx	lr
 80003ee:	46c0      	nop			; (mov r8, r8)

080003f0 <menuInputService>:


TMENU menu_strct;


void menuInputService (TINPUT * in_wsk) {
 80003f0:	b580      	push	{r7, lr}
 80003f2:	b082      	sub	sp, #8
 80003f4:	af00      	add	r7, sp, #0
 80003f6:	6078      	str	r0, [r7, #4]

	// Display which variable is being configured
	DisplayLEDStr(in_wsk->display);
 80003f8:	687b      	ldr	r3, [r7, #4]
 80003fa:	3307      	adds	r3, #7
 80003fc:	0018      	movs	r0, r3
 80003fe:	f001 fb12 	bl	8001a26 <DisplayLEDStr>
	displayChar(((in_wsk->idx_default_ten + 48)), 4);	// Display initial values in line with the current idx
 8000402:	687b      	ldr	r3, [r7, #4]
 8000404:	78db      	ldrb	r3, [r3, #3]
 8000406:	3330      	adds	r3, #48	; 0x30
 8000408:	b2db      	uxtb	r3, r3
 800040a:	2104      	movs	r1, #4
 800040c:	0018      	movs	r0, r3
 800040e:	f001 fc53 	bl	8001cb8 <displayChar>
	displayChar(((in_wsk->idx_default_units + 48)), 5);
 8000412:	687b      	ldr	r3, [r7, #4]
 8000414:	791b      	ldrb	r3, [r3, #4]
 8000416:	3330      	adds	r3, #48	; 0x30
 8000418:	b2db      	uxtb	r3, r3
 800041a:	2105      	movs	r1, #5
 800041c:	0018      	movs	r0, r3
 800041e:	f001 fc4b 	bl	8001cb8 <displayChar>

	in_wsk->temp_val_ten = in_wsk->idx_default_ten;
 8000422:	687b      	ldr	r3, [r7, #4]
 8000424:	78da      	ldrb	r2, [r3, #3]
 8000426:	687b      	ldr	r3, [r7, #4]
 8000428:	701a      	strb	r2, [r3, #0]
	in_wsk->temp_val_units = in_wsk->idx_default_units;
 800042a:	687b      	ldr	r3, [r7, #4]
 800042c:	791a      	ldrb	r2, [r3, #4]
 800042e:	687b      	ldr	r3, [r7, #4]
 8000430:	705a      	strb	r2, [r3, #1]
	in_wsk->idx = (in_wsk->idx_default_ten * 10) + in_wsk->idx_default_units;
 8000432:	687b      	ldr	r3, [r7, #4]
 8000434:	78db      	ldrb	r3, [r3, #3]
 8000436:	1c1a      	adds	r2, r3, #0
 8000438:	0092      	lsls	r2, r2, #2
 800043a:	18d3      	adds	r3, r2, r3
 800043c:	18db      	adds	r3, r3, r3
 800043e:	b2da      	uxtb	r2, r3
 8000440:	687b      	ldr	r3, [r7, #4]
 8000442:	791b      	ldrb	r3, [r3, #4]
 8000444:	18d3      	adds	r3, r2, r3
 8000446:	b2da      	uxtb	r2, r3
 8000448:	687b      	ldr	r3, [r7, #4]
 800044a:	709a      	strb	r2, [r3, #2]

	while(!button_flag[B_SET]) {
 800044c:	e082      	b.n	8000554 <menuInputService+0x164>
		if (button_flag[B_UP]) {
 800044e:	4b48      	ldr	r3, [pc, #288]	; (8000570 <menuInputService+0x180>)
 8000450:	789b      	ldrb	r3, [r3, #2]
 8000452:	b2db      	uxtb	r3, r3
 8000454:	2b00      	cmp	r3, #0
 8000456:	d038      	beq.n	80004ca <menuInputService+0xda>
			button_flag[B_UP]=0;
 8000458:	4b45      	ldr	r3, [pc, #276]	; (8000570 <menuInputService+0x180>)
 800045a:	2200      	movs	r2, #0
 800045c:	709a      	strb	r2, [r3, #2]
			(in_wsk->idx)++;
 800045e:	687b      	ldr	r3, [r7, #4]
 8000460:	789b      	ldrb	r3, [r3, #2]
 8000462:	3301      	adds	r3, #1
 8000464:	b2da      	uxtb	r2, r3
 8000466:	687b      	ldr	r3, [r7, #4]
 8000468:	709a      	strb	r2, [r3, #2]
			if (in_wsk->idx > (in_wsk->idx_max)) in_wsk->idx = in_wsk->idx_min;
 800046a:	687b      	ldr	r3, [r7, #4]
 800046c:	789a      	ldrb	r2, [r3, #2]
 800046e:	687b      	ldr	r3, [r7, #4]
 8000470:	795b      	ldrb	r3, [r3, #5]
 8000472:	429a      	cmp	r2, r3
 8000474:	d903      	bls.n	800047e <menuInputService+0x8e>
 8000476:	687b      	ldr	r3, [r7, #4]
 8000478:	799a      	ldrb	r2, [r3, #6]
 800047a:	687b      	ldr	r3, [r7, #4]
 800047c:	709a      	strb	r2, [r3, #2]
			in_wsk->temp_val_ten = (decToBcd(in_wsk->idx)>>4);
 800047e:	687b      	ldr	r3, [r7, #4]
 8000480:	789b      	ldrb	r3, [r3, #2]
 8000482:	0018      	movs	r0, r3
 8000484:	f000 fc40 	bl	8000d08 <decToBcd>
 8000488:	0003      	movs	r3, r0
 800048a:	091b      	lsrs	r3, r3, #4
 800048c:	b2da      	uxtb	r2, r3
 800048e:	687b      	ldr	r3, [r7, #4]
 8000490:	701a      	strb	r2, [r3, #0]
			in_wsk->temp_val_units = (decToBcd(in_wsk->idx) & 0x0F);
 8000492:	687b      	ldr	r3, [r7, #4]
 8000494:	789b      	ldrb	r3, [r3, #2]
 8000496:	0018      	movs	r0, r3
 8000498:	f000 fc36 	bl	8000d08 <decToBcd>
 800049c:	0003      	movs	r3, r0
 800049e:	001a      	movs	r2, r3
 80004a0:	230f      	movs	r3, #15
 80004a2:	4013      	ands	r3, r2
 80004a4:	b2da      	uxtb	r2, r3
 80004a6:	687b      	ldr	r3, [r7, #4]
 80004a8:	705a      	strb	r2, [r3, #1]
			displayChar(((in_wsk->temp_val_ten)+48), 4);
 80004aa:	687b      	ldr	r3, [r7, #4]
 80004ac:	781b      	ldrb	r3, [r3, #0]
 80004ae:	3330      	adds	r3, #48	; 0x30
 80004b0:	b2db      	uxtb	r3, r3
 80004b2:	2104      	movs	r1, #4
 80004b4:	0018      	movs	r0, r3
 80004b6:	f001 fbff 	bl	8001cb8 <displayChar>
			displayChar(((in_wsk->temp_val_units)+48), 5);
 80004ba:	687b      	ldr	r3, [r7, #4]
 80004bc:	785b      	ldrb	r3, [r3, #1]
 80004be:	3330      	adds	r3, #48	; 0x30
 80004c0:	b2db      	uxtb	r3, r3
 80004c2:	2105      	movs	r1, #5
 80004c4:	0018      	movs	r0, r3
 80004c6:	f001 fbf7 	bl	8001cb8 <displayChar>
		}
		if (button_flag[B_DOWN]) {
 80004ca:	4b29      	ldr	r3, [pc, #164]	; (8000570 <menuInputService+0x180>)
 80004cc:	785b      	ldrb	r3, [r3, #1]
 80004ce:	b2db      	uxtb	r3, r3
 80004d0:	2b00      	cmp	r3, #0
 80004d2:	d03c      	beq.n	800054e <menuInputService+0x15e>
			button_flag[B_DOWN]=0;
 80004d4:	4b26      	ldr	r3, [pc, #152]	; (8000570 <menuInputService+0x180>)
 80004d6:	2200      	movs	r2, #0
 80004d8:	705a      	strb	r2, [r3, #1]
			(in_wsk->idx)--;
 80004da:	687b      	ldr	r3, [r7, #4]
 80004dc:	789b      	ldrb	r3, [r3, #2]
 80004de:	3b01      	subs	r3, #1
 80004e0:	b2da      	uxtb	r2, r3
 80004e2:	687b      	ldr	r3, [r7, #4]
 80004e4:	709a      	strb	r2, [r3, #2]
			if (in_wsk->idx > 250 || in_wsk->idx < in_wsk->idx_min) in_wsk->idx = in_wsk->idx_max;
 80004e6:	687b      	ldr	r3, [r7, #4]
 80004e8:	789b      	ldrb	r3, [r3, #2]
 80004ea:	2bfa      	cmp	r3, #250	; 0xfa
 80004ec:	d805      	bhi.n	80004fa <menuInputService+0x10a>
 80004ee:	687b      	ldr	r3, [r7, #4]
 80004f0:	789a      	ldrb	r2, [r3, #2]
 80004f2:	687b      	ldr	r3, [r7, #4]
 80004f4:	799b      	ldrb	r3, [r3, #6]
 80004f6:	429a      	cmp	r2, r3
 80004f8:	d203      	bcs.n	8000502 <menuInputService+0x112>
 80004fa:	687b      	ldr	r3, [r7, #4]
 80004fc:	795a      	ldrb	r2, [r3, #5]
 80004fe:	687b      	ldr	r3, [r7, #4]
 8000500:	709a      	strb	r2, [r3, #2]
			in_wsk->temp_val_ten=(decToBcd(in_wsk->idx)>>4);
 8000502:	687b      	ldr	r3, [r7, #4]
 8000504:	789b      	ldrb	r3, [r3, #2]
 8000506:	0018      	movs	r0, r3
 8000508:	f000 fbfe 	bl	8000d08 <decToBcd>
 800050c:	0003      	movs	r3, r0
 800050e:	091b      	lsrs	r3, r3, #4
 8000510:	b2da      	uxtb	r2, r3
 8000512:	687b      	ldr	r3, [r7, #4]
 8000514:	701a      	strb	r2, [r3, #0]
			in_wsk->temp_val_units = (decToBcd(in_wsk->idx) & 0x0F);
 8000516:	687b      	ldr	r3, [r7, #4]
 8000518:	789b      	ldrb	r3, [r3, #2]
 800051a:	0018      	movs	r0, r3
 800051c:	f000 fbf4 	bl	8000d08 <decToBcd>
 8000520:	0003      	movs	r3, r0
 8000522:	001a      	movs	r2, r3
 8000524:	230f      	movs	r3, #15
 8000526:	4013      	ands	r3, r2
 8000528:	b2da      	uxtb	r2, r3
 800052a:	687b      	ldr	r3, [r7, #4]
 800052c:	705a      	strb	r2, [r3, #1]
			displayChar(((in_wsk->temp_val_ten)+48), 4);
 800052e:	687b      	ldr	r3, [r7, #4]
 8000530:	781b      	ldrb	r3, [r3, #0]
 8000532:	3330      	adds	r3, #48	; 0x30
 8000534:	b2db      	uxtb	r3, r3
 8000536:	2104      	movs	r1, #4
 8000538:	0018      	movs	r0, r3
 800053a:	f001 fbbd 	bl	8001cb8 <displayChar>
			displayChar(((in_wsk->temp_val_units)+48), 5);
 800053e:	687b      	ldr	r3, [r7, #4]
 8000540:	785b      	ldrb	r3, [r3, #1]
 8000542:	3330      	adds	r3, #48	; 0x30
 8000544:	b2db      	uxtb	r3, r3
 8000546:	2105      	movs	r1, #5
 8000548:	0018      	movs	r0, r3
 800054a:	f001 fbb5 	bl	8001cb8 <displayChar>
		}

		delay_ms(250);
 800054e:	20fa      	movs	r0, #250	; 0xfa
 8000550:	f000 ffe6 	bl	8001520 <delay_ms>
	while(!button_flag[B_SET]) {
 8000554:	4b06      	ldr	r3, [pc, #24]	; (8000570 <menuInputService+0x180>)
 8000556:	781b      	ldrb	r3, [r3, #0]
 8000558:	b2db      	uxtb	r3, r3
 800055a:	2b00      	cmp	r3, #0
 800055c:	d100      	bne.n	8000560 <menuInputService+0x170>
 800055e:	e776      	b.n	800044e <menuInputService+0x5e>
	}
	button_flag[B_SET]=0;
 8000560:	4b03      	ldr	r3, [pc, #12]	; (8000570 <menuInputService+0x180>)
 8000562:	2200      	movs	r2, #0
 8000564:	701a      	strb	r2, [r3, #0]
}
 8000566:	46c0      	nop			; (mov r8, r8)
 8000568:	46bd      	mov	sp, r7
 800056a:	b002      	add	sp, #8
 800056c:	bd80      	pop	{r7, pc}
 800056e:	46c0      	nop			; (mov r8, r8)
 8000570:	20000060 	.word	0x20000060

08000574 <menuBranchService>:





void menuBranchService (TMENU * wsk) {
 8000574:	b580      	push	{r7, lr}
 8000576:	b084      	sub	sp, #16
 8000578:	af00      	add	r7, sp, #0
 800057a:	6078      	str	r0, [r7, #4]

	LEDClr();
 800057c:	f001 fe30 	bl	80021e0 <LEDClr>

	FillLEDArray(LED_buf, 0, 0, 0);
 8000580:	4856      	ldr	r0, [pc, #344]	; (80006dc <menuBranchService+0x168>)
 8000582:	2300      	movs	r3, #0
 8000584:	2200      	movs	r2, #0
 8000586:	2100      	movs	r1, #0
 8000588:	f002 f92a 	bl	80027e0 <FillLEDArray>
	SPI_SEND_WSBUF(LED_buf, sizeof(LED_buf));
 800058c:	23a2      	movs	r3, #162	; 0xa2
 800058e:	00da      	lsls	r2, r3, #3
 8000590:	4b52      	ldr	r3, [pc, #328]	; (80006dc <menuBranchService+0x168>)
 8000592:	0011      	movs	r1, r2
 8000594:	0018      	movs	r0, r3
 8000596:	f002 facd 	bl	8002b34 <SPI_SEND_WSBUF>

	button_flag[B_UP]=0;
 800059a:	4b51      	ldr	r3, [pc, #324]	; (80006e0 <menuBranchService+0x16c>)
 800059c:	2200      	movs	r2, #0
 800059e:	709a      	strb	r2, [r3, #2]
	button_flag[B_DOWN]=0;
 80005a0:	4b4f      	ldr	r3, [pc, #316]	; (80006e0 <menuBranchService+0x16c>)
 80005a2:	2200      	movs	r2, #0
 80005a4:	705a      	strb	r2, [r3, #1]
	button_flag[B_SET]=0;
 80005a6:	4b4e      	ldr	r3, [pc, #312]	; (80006e0 <menuBranchService+0x16c>)
 80005a8:	2200      	movs	r2, #0
 80005aa:	701a      	strb	r2, [r3, #0]

	wsk->nxt_level = 0;
 80005ac:	687b      	ldr	r3, [r7, #4]
 80005ae:	2200      	movs	r2, #0
 80005b0:	705a      	strb	r2, [r3, #1]
	wsk->menu_pos = 0;
 80005b2:	687b      	ldr	r3, [r7, #4]
 80005b4:	2200      	movs	r2, #0
 80005b6:	701a      	strb	r2, [r3, #0]
	wsk->nxt_level = 0;
 80005b8:	687b      	ldr	r3, [r7, #4]
 80005ba:	2200      	movs	r2, #0
 80005bc:	705a      	strb	r2, [r3, #1]
	wsk->back = 0;
 80005be:	687b      	ldr	r3, [r7, #4]
 80005c0:	2200      	movs	r2, #0
 80005c2:	709a      	strb	r2, [r3, #2]

	uint8_t temp_pos;

	while(!wsk->back) {
 80005c4:	e080      	b.n	80006c8 <menuBranchService+0x154>

	if (button_flag[B_UP]) {
 80005c6:	4b46      	ldr	r3, [pc, #280]	; (80006e0 <menuBranchService+0x16c>)
 80005c8:	789b      	ldrb	r3, [r3, #2]
 80005ca:	b2db      	uxtb	r3, r3
 80005cc:	2b00      	cmp	r3, #0
 80005ce:	d011      	beq.n	80005f4 <menuBranchService+0x80>
		button_flag[B_UP]=0;
 80005d0:	4b43      	ldr	r3, [pc, #268]	; (80006e0 <menuBranchService+0x16c>)
 80005d2:	2200      	movs	r2, #0
 80005d4:	709a      	strb	r2, [r3, #2]
		wsk->menu_pos++;
 80005d6:	687b      	ldr	r3, [r7, #4]
 80005d8:	781b      	ldrb	r3, [r3, #0]
 80005da:	3301      	adds	r3, #1
 80005dc:	b2da      	uxtb	r2, r3
 80005de:	687b      	ldr	r3, [r7, #4]
 80005e0:	701a      	strb	r2, [r3, #0]
		if(wsk->menu_pos > wsk->menu_pos_max) wsk->menu_pos=0;
 80005e2:	687b      	ldr	r3, [r7, #4]
 80005e4:	781a      	ldrb	r2, [r3, #0]
 80005e6:	687b      	ldr	r3, [r7, #4]
 80005e8:	78db      	ldrb	r3, [r3, #3]
 80005ea:	429a      	cmp	r2, r3
 80005ec:	d902      	bls.n	80005f4 <menuBranchService+0x80>
 80005ee:	687b      	ldr	r3, [r7, #4]
 80005f0:	2200      	movs	r2, #0
 80005f2:	701a      	strb	r2, [r3, #0]
	}

	if (button_flag[B_DOWN]) {
 80005f4:	4b3a      	ldr	r3, [pc, #232]	; (80006e0 <menuBranchService+0x16c>)
 80005f6:	785b      	ldrb	r3, [r3, #1]
 80005f8:	b2db      	uxtb	r3, r3
 80005fa:	2b00      	cmp	r3, #0
 80005fc:	d010      	beq.n	8000620 <menuBranchService+0xac>
		button_flag[B_DOWN]=0;
 80005fe:	4b38      	ldr	r3, [pc, #224]	; (80006e0 <menuBranchService+0x16c>)
 8000600:	2200      	movs	r2, #0
 8000602:	705a      	strb	r2, [r3, #1]
		wsk->menu_pos--;
 8000604:	687b      	ldr	r3, [r7, #4]
 8000606:	781b      	ldrb	r3, [r3, #0]
 8000608:	3b01      	subs	r3, #1
 800060a:	b2da      	uxtb	r2, r3
 800060c:	687b      	ldr	r3, [r7, #4]
 800060e:	701a      	strb	r2, [r3, #0]
		if(wsk->menu_pos>250) wsk->menu_pos = wsk->menu_pos_max;
 8000610:	687b      	ldr	r3, [r7, #4]
 8000612:	781b      	ldrb	r3, [r3, #0]
 8000614:	2bfa      	cmp	r3, #250	; 0xfa
 8000616:	d903      	bls.n	8000620 <menuBranchService+0xac>
 8000618:	687b      	ldr	r3, [r7, #4]
 800061a:	78da      	ldrb	r2, [r3, #3]
 800061c:	687b      	ldr	r3, [r7, #4]
 800061e:	701a      	strb	r2, [r3, #0]
	}


	if (button_flag[B_SET]) {
 8000620:	4b2f      	ldr	r3, [pc, #188]	; (80006e0 <menuBranchService+0x16c>)
 8000622:	781b      	ldrb	r3, [r3, #0]
 8000624:	b2db      	uxtb	r3, r3
 8000626:	2b00      	cmp	r3, #0
 8000628:	d005      	beq.n	8000636 <menuBranchService+0xc2>
		button_flag[B_SET]=0;
 800062a:	4b2d      	ldr	r3, [pc, #180]	; (80006e0 <menuBranchService+0x16c>)
 800062c:	2200      	movs	r2, #0
 800062e:	701a      	strb	r2, [r3, #0]
		wsk->nxt_level=1;
 8000630:	687b      	ldr	r3, [r7, #4]
 8000632:	2201      	movs	r2, #1
 8000634:	705a      	strb	r2, [r3, #1]
	}

	if (temp_pos != wsk->menu_pos) {
 8000636:	687b      	ldr	r3, [r7, #4]
 8000638:	781b      	ldrb	r3, [r3, #0]
 800063a:	220f      	movs	r2, #15
 800063c:	18ba      	adds	r2, r7, r2
 800063e:	7812      	ldrb	r2, [r2, #0]
 8000640:	429a      	cmp	r2, r3
 8000642:	d00d      	beq.n	8000660 <menuBranchService+0xec>
		DisplayLEDStr(main_options[wsk->menu_pos]);
 8000644:	687b      	ldr	r3, [r7, #4]
 8000646:	781b      	ldrb	r3, [r3, #0]
 8000648:	001a      	movs	r2, r3
 800064a:	4b26      	ldr	r3, [pc, #152]	; (80006e4 <menuBranchService+0x170>)
 800064c:	0092      	lsls	r2, r2, #2
 800064e:	58d3      	ldr	r3, [r2, r3]
 8000650:	0018      	movs	r0, r3
 8000652:	f001 f9e8 	bl	8001a26 <DisplayLEDStr>
		temp_pos = wsk->menu_pos;
 8000656:	230f      	movs	r3, #15
 8000658:	18fb      	adds	r3, r7, r3
 800065a:	687a      	ldr	r2, [r7, #4]
 800065c:	7812      	ldrb	r2, [r2, #0]
 800065e:	701a      	strb	r2, [r3, #0]
	}


	if(wsk->nxt_level) {
 8000660:	687b      	ldr	r3, [r7, #4]
 8000662:	785b      	ldrb	r3, [r3, #1]
 8000664:	2b00      	cmp	r3, #0
 8000666:	d02c      	beq.n	80006c2 <menuBranchService+0x14e>
		if (wsk->menu_pos == p_main_back) return;
 8000668:	687b      	ldr	r3, [r7, #4]
 800066a:	781b      	ldrb	r3, [r3, #0]
 800066c:	2b03      	cmp	r3, #3
 800066e:	d031      	beq.n	80006d4 <menuBranchService+0x160>
		else if ((wsk->configuration) && (wsk->menu_pos == p_main_config)) wsk->configuration(wsk);
 8000670:	687b      	ldr	r3, [r7, #4]
 8000672:	685b      	ldr	r3, [r3, #4]
 8000674:	2b00      	cmp	r3, #0
 8000676:	d009      	beq.n	800068c <menuBranchService+0x118>
 8000678:	687b      	ldr	r3, [r7, #4]
 800067a:	781b      	ldrb	r3, [r3, #0]
 800067c:	2b00      	cmp	r3, #0
 800067e:	d105      	bne.n	800068c <menuBranchService+0x118>
 8000680:	687b      	ldr	r3, [r7, #4]
 8000682:	685b      	ldr	r3, [r3, #4]
 8000684:	687a      	ldr	r2, [r7, #4]
 8000686:	0010      	movs	r0, r2
 8000688:	4798      	blx	r3
 800068a:	e01a      	b.n	80006c2 <menuBranchService+0x14e>
		else if ((wsk->alarm) && (wsk->menu_pos == p_main_alarm)) wsk->alarm(wsk);
 800068c:	687b      	ldr	r3, [r7, #4]
 800068e:	68db      	ldr	r3, [r3, #12]
 8000690:	2b00      	cmp	r3, #0
 8000692:	d009      	beq.n	80006a8 <menuBranchService+0x134>
 8000694:	687b      	ldr	r3, [r7, #4]
 8000696:	781b      	ldrb	r3, [r3, #0]
 8000698:	2b01      	cmp	r3, #1
 800069a:	d105      	bne.n	80006a8 <menuBranchService+0x134>
 800069c:	687b      	ldr	r3, [r7, #4]
 800069e:	68db      	ldr	r3, [r3, #12]
 80006a0:	687a      	ldr	r2, [r7, #4]
 80006a2:	0010      	movs	r0, r2
 80006a4:	4798      	blx	r3
 80006a6:	e00c      	b.n	80006c2 <menuBranchService+0x14e>
		else if ((wsk->study) && (wsk->menu_pos == p_main_study)) wsk->study(wsk);
 80006a8:	687b      	ldr	r3, [r7, #4]
 80006aa:	689b      	ldr	r3, [r3, #8]
 80006ac:	2b00      	cmp	r3, #0
 80006ae:	d008      	beq.n	80006c2 <menuBranchService+0x14e>
 80006b0:	687b      	ldr	r3, [r7, #4]
 80006b2:	781b      	ldrb	r3, [r3, #0]
 80006b4:	2b02      	cmp	r3, #2
 80006b6:	d104      	bne.n	80006c2 <menuBranchService+0x14e>
 80006b8:	687b      	ldr	r3, [r7, #4]
 80006ba:	689b      	ldr	r3, [r3, #8]
 80006bc:	687a      	ldr	r2, [r7, #4]
 80006be:	0010      	movs	r0, r2
 80006c0:	4798      	blx	r3
		}
	delay_ms(250);
 80006c2:	20fa      	movs	r0, #250	; 0xfa
 80006c4:	f000 ff2c 	bl	8001520 <delay_ms>
	while(!wsk->back) {
 80006c8:	687b      	ldr	r3, [r7, #4]
 80006ca:	789b      	ldrb	r3, [r3, #2]
 80006cc:	2b00      	cmp	r3, #0
 80006ce:	d100      	bne.n	80006d2 <menuBranchService+0x15e>
 80006d0:	e779      	b.n	80005c6 <menuBranchService+0x52>
 80006d2:	e000      	b.n	80006d6 <menuBranchService+0x162>
		if (wsk->menu_pos == p_main_back) return;
 80006d4:	46c0      	nop			; (mov r8, r8)
	}

}
 80006d6:	46bd      	mov	sp, r7
 80006d8:	b004      	add	sp, #16
 80006da:	bd80      	pop	{r7, pc}
 80006dc:	2000006c 	.word	0x2000006c
 80006e0:	20000060 	.word	0x20000060
 80006e4:	20000000 	.word	0x20000000

080006e8 <selectAlarm>:



void selectAlarm(void) {
 80006e8:	b580      	push	{r7, lr}
 80006ea:	b084      	sub	sp, #16
 80006ec:	af00      	add	r7, sp, #0

	TINPUT input;

	// Input hour
	input.display[0]='h'; input.display[1]='r';
 80006ee:	1d3b      	adds	r3, r7, #4
 80006f0:	2268      	movs	r2, #104	; 0x68
 80006f2:	71da      	strb	r2, [r3, #7]
 80006f4:	1d3b      	adds	r3, r7, #4
 80006f6:	2272      	movs	r2, #114	; 0x72
 80006f8:	721a      	strb	r2, [r3, #8]
	input.idx_max=23;
 80006fa:	1d3b      	adds	r3, r7, #4
 80006fc:	2217      	movs	r2, #23
 80006fe:	715a      	strb	r2, [r3, #5]
	input.idx_min=0;
 8000700:	1d3b      	adds	r3, r7, #4
 8000702:	2200      	movs	r2, #0
 8000704:	719a      	strb	r2, [r3, #6]
	input.idx_default_ten = al_hour_t;
 8000706:	4b23      	ldr	r3, [pc, #140]	; (8000794 <selectAlarm+0xac>)
 8000708:	781a      	ldrb	r2, [r3, #0]
 800070a:	1d3b      	adds	r3, r7, #4
 800070c:	70da      	strb	r2, [r3, #3]
	input.idx_default_units = al_hour_u;
 800070e:	4b22      	ldr	r3, [pc, #136]	; (8000798 <selectAlarm+0xb0>)
 8000710:	781a      	ldrb	r2, [r3, #0]
 8000712:	1d3b      	adds	r3, r7, #4
 8000714:	711a      	strb	r2, [r3, #4]
	menuInputService(&input);
 8000716:	1d3b      	adds	r3, r7, #4
 8000718:	0018      	movs	r0, r3
 800071a:	f7ff fe69 	bl	80003f0 <menuInputService>
	al_hour_t = input.temp_val_ten;
 800071e:	1d3b      	adds	r3, r7, #4
 8000720:	781a      	ldrb	r2, [r3, #0]
 8000722:	4b1c      	ldr	r3, [pc, #112]	; (8000794 <selectAlarm+0xac>)
 8000724:	701a      	strb	r2, [r3, #0]
	al_hour_u = input.temp_val_units;
 8000726:	1d3b      	adds	r3, r7, #4
 8000728:	785a      	ldrb	r2, [r3, #1]
 800072a:	4b1b      	ldr	r3, [pc, #108]	; (8000798 <selectAlarm+0xb0>)
 800072c:	701a      	strb	r2, [r3, #0]

	// Input minute
	input.display[0]='m'; input.display[1]='i'; input.display[2]='n';
 800072e:	1d3b      	adds	r3, r7, #4
 8000730:	226d      	movs	r2, #109	; 0x6d
 8000732:	71da      	strb	r2, [r3, #7]
 8000734:	1d3b      	adds	r3, r7, #4
 8000736:	2269      	movs	r2, #105	; 0x69
 8000738:	721a      	strb	r2, [r3, #8]
 800073a:	1d3b      	adds	r3, r7, #4
 800073c:	226e      	movs	r2, #110	; 0x6e
 800073e:	725a      	strb	r2, [r3, #9]
	input.idx_max=59;
 8000740:	1d3b      	adds	r3, r7, #4
 8000742:	223b      	movs	r2, #59	; 0x3b
 8000744:	715a      	strb	r2, [r3, #5]
	input.idx_min=0;
 8000746:	1d3b      	adds	r3, r7, #4
 8000748:	2200      	movs	r2, #0
 800074a:	719a      	strb	r2, [r3, #6]
	input.idx_default_ten = al_min_t;
 800074c:	4b13      	ldr	r3, [pc, #76]	; (800079c <selectAlarm+0xb4>)
 800074e:	781a      	ldrb	r2, [r3, #0]
 8000750:	1d3b      	adds	r3, r7, #4
 8000752:	70da      	strb	r2, [r3, #3]
	input.idx_default_units = al_min_u;
 8000754:	4b12      	ldr	r3, [pc, #72]	; (80007a0 <selectAlarm+0xb8>)
 8000756:	781a      	ldrb	r2, [r3, #0]
 8000758:	1d3b      	adds	r3, r7, #4
 800075a:	711a      	strb	r2, [r3, #4]
	menuInputService(&input);
 800075c:	1d3b      	adds	r3, r7, #4
 800075e:	0018      	movs	r0, r3
 8000760:	f7ff fe46 	bl	80003f0 <menuInputService>
	al_min_t = input.temp_val_ten;
 8000764:	1d3b      	adds	r3, r7, #4
 8000766:	781a      	ldrb	r2, [r3, #0]
 8000768:	4b0c      	ldr	r3, [pc, #48]	; (800079c <selectAlarm+0xb4>)
 800076a:	701a      	strb	r2, [r3, #0]
	al_min_u = input.temp_val_units;
 800076c:	1d3b      	adds	r3, r7, #4
 800076e:	785a      	ldrb	r2, [r3, #1]
 8000770:	4b0b      	ldr	r3, [pc, #44]	; (80007a0 <selectAlarm+0xb8>)
 8000772:	701a      	strb	r2, [r3, #0]

	al_enable_flag = 1;
 8000774:	4b0b      	ldr	r3, [pc, #44]	; (80007a4 <selectAlarm+0xbc>)
 8000776:	2201      	movs	r2, #1
 8000778:	701a      	strb	r2, [r3, #0]
	GPIOA->ODR |= GPIO_ODR_OD6;
 800077a:	23a0      	movs	r3, #160	; 0xa0
 800077c:	05db      	lsls	r3, r3, #23
 800077e:	695a      	ldr	r2, [r3, #20]
 8000780:	23a0      	movs	r3, #160	; 0xa0
 8000782:	05db      	lsls	r3, r3, #23
 8000784:	2140      	movs	r1, #64	; 0x40
 8000786:	430a      	orrs	r2, r1
 8000788:	615a      	str	r2, [r3, #20]

}
 800078a:	46c0      	nop			; (mov r8, r8)
 800078c:	46bd      	mov	sp, r7
 800078e:	b004      	add	sp, #16
 8000790:	bd80      	pop	{r7, pc}
 8000792:	46c0      	nop			; (mov r8, r8)
 8000794:	20000065 	.word	0x20000065
 8000798:	2000005d 	.word	0x2000005d
 800079c:	20000067 	.word	0x20000067
 80007a0:	2000006a 	.word	0x2000006a
 80007a4:	2000005c 	.word	0x2000005c

080007a8 <EnableAlarm>:

void EnableAlarm(void) {
 80007a8:	b580      	push	{r7, lr}
 80007aa:	af00      	add	r7, sp, #0

	if (!al_enable_flag) {
 80007ac:	4b0e      	ldr	r3, [pc, #56]	; (80007e8 <EnableAlarm+0x40>)
 80007ae:	781b      	ldrb	r3, [r3, #0]
 80007b0:	2b00      	cmp	r3, #0
 80007b2:	d10b      	bne.n	80007cc <EnableAlarm+0x24>
		al_enable_flag = 1;
 80007b4:	4b0c      	ldr	r3, [pc, #48]	; (80007e8 <EnableAlarm+0x40>)
 80007b6:	2201      	movs	r2, #1
 80007b8:	701a      	strb	r2, [r3, #0]
		GPIOA->ODR |= GPIO_ODR_OD6;
 80007ba:	23a0      	movs	r3, #160	; 0xa0
 80007bc:	05db      	lsls	r3, r3, #23
 80007be:	695a      	ldr	r2, [r3, #20]
 80007c0:	23a0      	movs	r3, #160	; 0xa0
 80007c2:	05db      	lsls	r3, r3, #23
 80007c4:	2140      	movs	r1, #64	; 0x40
 80007c6:	430a      	orrs	r2, r1
 80007c8:	615a      	str	r2, [r3, #20]
	} else {
		al_enable_flag = 0;
		GPIOA->ODR &= ~GPIO_ODR_OD6;
	}

}
 80007ca:	e00a      	b.n	80007e2 <EnableAlarm+0x3a>
		al_enable_flag = 0;
 80007cc:	4b06      	ldr	r3, [pc, #24]	; (80007e8 <EnableAlarm+0x40>)
 80007ce:	2200      	movs	r2, #0
 80007d0:	701a      	strb	r2, [r3, #0]
		GPIOA->ODR &= ~GPIO_ODR_OD6;
 80007d2:	23a0      	movs	r3, #160	; 0xa0
 80007d4:	05db      	lsls	r3, r3, #23
 80007d6:	695a      	ldr	r2, [r3, #20]
 80007d8:	23a0      	movs	r3, #160	; 0xa0
 80007da:	05db      	lsls	r3, r3, #23
 80007dc:	2140      	movs	r1, #64	; 0x40
 80007de:	438a      	bics	r2, r1
 80007e0:	615a      	str	r2, [r3, #20]
}
 80007e2:	46c0      	nop			; (mov r8, r8)
 80007e4:	46bd      	mov	sp, r7
 80007e6:	bd80      	pop	{r7, pc}
 80007e8:	2000005c 	.word	0x2000005c

080007ec <selectTime>:




void selectTime(void) {
 80007ec:	b5f0      	push	{r4, r5, r6, r7, lr}
 80007ee:	b089      	sub	sp, #36	; 0x24
 80007f0:	af02      	add	r7, sp, #8


	TINPUT input;

	// Input hour
	input.display[0]='h'; input.display[1]='r';
 80007f2:	003b      	movs	r3, r7
 80007f4:	2268      	movs	r2, #104	; 0x68
 80007f6:	71da      	strb	r2, [r3, #7]
 80007f8:	003b      	movs	r3, r7
 80007fa:	2272      	movs	r2, #114	; 0x72
 80007fc:	721a      	strb	r2, [r3, #8]
	input.idx_max=23;
 80007fe:	003b      	movs	r3, r7
 8000800:	2217      	movs	r2, #23
 8000802:	715a      	strb	r2, [r3, #5]
	input.idx_min=0;
 8000804:	003b      	movs	r3, r7
 8000806:	2200      	movs	r2, #0
 8000808:	719a      	strb	r2, [r3, #6]
	input.idx_default_ten = hour_t;
 800080a:	4b6d      	ldr	r3, [pc, #436]	; (80009c0 <selectTime+0x1d4>)
 800080c:	781b      	ldrb	r3, [r3, #0]
 800080e:	b2da      	uxtb	r2, r3
 8000810:	003b      	movs	r3, r7
 8000812:	70da      	strb	r2, [r3, #3]
	input.idx_default_units = hour_u;
 8000814:	4b6b      	ldr	r3, [pc, #428]	; (80009c4 <selectTime+0x1d8>)
 8000816:	781b      	ldrb	r3, [r3, #0]
 8000818:	b2da      	uxtb	r2, r3
 800081a:	003b      	movs	r3, r7
 800081c:	711a      	strb	r2, [r3, #4]
	menuInputService(&input);
 800081e:	003b      	movs	r3, r7
 8000820:	0018      	movs	r0, r3
 8000822:	f7ff fde5 	bl	80003f0 <menuInputService>
	temp_t_hour = input.temp_val_ten;
 8000826:	2517      	movs	r5, #23
 8000828:	197b      	adds	r3, r7, r5
 800082a:	003a      	movs	r2, r7
 800082c:	7812      	ldrb	r2, [r2, #0]
 800082e:	701a      	strb	r2, [r3, #0]
	temp_u_hour = input.temp_val_units;
 8000830:	2616      	movs	r6, #22
 8000832:	19bb      	adds	r3, r7, r6
 8000834:	003a      	movs	r2, r7
 8000836:	7852      	ldrb	r2, [r2, #1]
 8000838:	701a      	strb	r2, [r3, #0]

	// Input minute
	input.display[0]='m'; input.display[1]='i'; input.display[2]='n';
 800083a:	003b      	movs	r3, r7
 800083c:	226d      	movs	r2, #109	; 0x6d
 800083e:	71da      	strb	r2, [r3, #7]
 8000840:	003b      	movs	r3, r7
 8000842:	2269      	movs	r2, #105	; 0x69
 8000844:	721a      	strb	r2, [r3, #8]
 8000846:	003b      	movs	r3, r7
 8000848:	226e      	movs	r2, #110	; 0x6e
 800084a:	725a      	strb	r2, [r3, #9]
	input.idx_max=59;
 800084c:	003b      	movs	r3, r7
 800084e:	223b      	movs	r2, #59	; 0x3b
 8000850:	715a      	strb	r2, [r3, #5]
	input.idx_min=0;
 8000852:	003b      	movs	r3, r7
 8000854:	2200      	movs	r2, #0
 8000856:	719a      	strb	r2, [r3, #6]
	input.idx_default_ten = minute_t;
 8000858:	4b5b      	ldr	r3, [pc, #364]	; (80009c8 <selectTime+0x1dc>)
 800085a:	781b      	ldrb	r3, [r3, #0]
 800085c:	b2da      	uxtb	r2, r3
 800085e:	003b      	movs	r3, r7
 8000860:	70da      	strb	r2, [r3, #3]
	input.idx_default_units = minute_u;
 8000862:	4b5a      	ldr	r3, [pc, #360]	; (80009cc <selectTime+0x1e0>)
 8000864:	781b      	ldrb	r3, [r3, #0]
 8000866:	b2da      	uxtb	r2, r3
 8000868:	003b      	movs	r3, r7
 800086a:	711a      	strb	r2, [r3, #4]
	menuInputService(&input);
 800086c:	003b      	movs	r3, r7
 800086e:	0018      	movs	r0, r3
 8000870:	f7ff fdbe 	bl	80003f0 <menuInputService>
	temp_t_minute = input.temp_val_ten;
 8000874:	2115      	movs	r1, #21
 8000876:	187b      	adds	r3, r7, r1
 8000878:	003a      	movs	r2, r7
 800087a:	7812      	ldrb	r2, [r2, #0]
 800087c:	701a      	strb	r2, [r3, #0]
	temp_u_minute = input.temp_val_units;
 800087e:	2014      	movs	r0, #20
 8000880:	183b      	adds	r3, r7, r0
 8000882:	003a      	movs	r2, r7
 8000884:	7852      	ldrb	r2, [r2, #1]
 8000886:	701a      	strb	r2, [r3, #0]

	setTime(temp_t_hour, temp_u_hour, temp_t_minute, temp_u_minute);
 8000888:	183b      	adds	r3, r7, r0
 800088a:	781c      	ldrb	r4, [r3, #0]
 800088c:	187b      	adds	r3, r7, r1
 800088e:	781a      	ldrb	r2, [r3, #0]
 8000890:	19bb      	adds	r3, r7, r6
 8000892:	7819      	ldrb	r1, [r3, #0]
 8000894:	197b      	adds	r3, r7, r5
 8000896:	7818      	ldrb	r0, [r3, #0]
 8000898:	0023      	movs	r3, r4
 800089a:	f000 fa53 	bl	8000d44 <setTime>

	// Input day
	input.display[0]='d'; input.display[1]='a'; input.display[2]='y';
 800089e:	003b      	movs	r3, r7
 80008a0:	2264      	movs	r2, #100	; 0x64
 80008a2:	71da      	strb	r2, [r3, #7]
 80008a4:	003b      	movs	r3, r7
 80008a6:	2261      	movs	r2, #97	; 0x61
 80008a8:	721a      	strb	r2, [r3, #8]
 80008aa:	003b      	movs	r3, r7
 80008ac:	2279      	movs	r2, #121	; 0x79
 80008ae:	725a      	strb	r2, [r3, #9]
	input.idx_max=31;
 80008b0:	003b      	movs	r3, r7
 80008b2:	221f      	movs	r2, #31
 80008b4:	715a      	strb	r2, [r3, #5]
	input.idx_min=1;
 80008b6:	003b      	movs	r3, r7
 80008b8:	2201      	movs	r2, #1
 80008ba:	719a      	strb	r2, [r3, #6]
	input.idx_default_ten = day_t;
 80008bc:	4b44      	ldr	r3, [pc, #272]	; (80009d0 <selectTime+0x1e4>)
 80008be:	781b      	ldrb	r3, [r3, #0]
 80008c0:	b2da      	uxtb	r2, r3
 80008c2:	003b      	movs	r3, r7
 80008c4:	70da      	strb	r2, [r3, #3]
	input.idx_default_units = day_u;
 80008c6:	4b43      	ldr	r3, [pc, #268]	; (80009d4 <selectTime+0x1e8>)
 80008c8:	781b      	ldrb	r3, [r3, #0]
 80008ca:	b2da      	uxtb	r2, r3
 80008cc:	003b      	movs	r3, r7
 80008ce:	711a      	strb	r2, [r3, #4]
	menuInputService(&input);
 80008d0:	003b      	movs	r3, r7
 80008d2:	0018      	movs	r0, r3
 80008d4:	f7ff fd8c 	bl	80003f0 <menuInputService>
	temp_t_day = input.temp_val_ten;
 80008d8:	2513      	movs	r5, #19
 80008da:	197b      	adds	r3, r7, r5
 80008dc:	003a      	movs	r2, r7
 80008de:	7812      	ldrb	r2, [r2, #0]
 80008e0:	701a      	strb	r2, [r3, #0]
	temp_u_day = input.temp_val_units;
 80008e2:	2612      	movs	r6, #18
 80008e4:	19bb      	adds	r3, r7, r6
 80008e6:	003a      	movs	r2, r7
 80008e8:	7852      	ldrb	r2, [r2, #1]
 80008ea:	701a      	strb	r2, [r3, #0]

	// Input month
	input.display[0]='m'; input.display[1]='o'; input.display[2]='n';
 80008ec:	003b      	movs	r3, r7
 80008ee:	226d      	movs	r2, #109	; 0x6d
 80008f0:	71da      	strb	r2, [r3, #7]
 80008f2:	003b      	movs	r3, r7
 80008f4:	226f      	movs	r2, #111	; 0x6f
 80008f6:	721a      	strb	r2, [r3, #8]
 80008f8:	003b      	movs	r3, r7
 80008fa:	226e      	movs	r2, #110	; 0x6e
 80008fc:	725a      	strb	r2, [r3, #9]
	input.idx_max=12;
 80008fe:	003b      	movs	r3, r7
 8000900:	220c      	movs	r2, #12
 8000902:	715a      	strb	r2, [r3, #5]
	input.idx_min=1;
 8000904:	003b      	movs	r3, r7
 8000906:	2201      	movs	r2, #1
 8000908:	719a      	strb	r2, [r3, #6]
	input.idx_default_ten = month_t;
 800090a:	4b33      	ldr	r3, [pc, #204]	; (80009d8 <selectTime+0x1ec>)
 800090c:	781b      	ldrb	r3, [r3, #0]
 800090e:	b2da      	uxtb	r2, r3
 8000910:	003b      	movs	r3, r7
 8000912:	70da      	strb	r2, [r3, #3]
	input.idx_default_units = month_u;
 8000914:	4b31      	ldr	r3, [pc, #196]	; (80009dc <selectTime+0x1f0>)
 8000916:	781b      	ldrb	r3, [r3, #0]
 8000918:	b2da      	uxtb	r2, r3
 800091a:	003b      	movs	r3, r7
 800091c:	711a      	strb	r2, [r3, #4]
	menuInputService(&input);
 800091e:	003b      	movs	r3, r7
 8000920:	0018      	movs	r0, r3
 8000922:	f7ff fd65 	bl	80003f0 <menuInputService>
	temp_t_month = input.temp_val_ten;
 8000926:	2311      	movs	r3, #17
 8000928:	18fb      	adds	r3, r7, r3
 800092a:	003a      	movs	r2, r7
 800092c:	7812      	ldrb	r2, [r2, #0]
 800092e:	701a      	strb	r2, [r3, #0]
	temp_u_month = input.temp_val_units;
 8000930:	2410      	movs	r4, #16
 8000932:	193b      	adds	r3, r7, r4
 8000934:	003a      	movs	r2, r7
 8000936:	7852      	ldrb	r2, [r2, #1]
 8000938:	701a      	strb	r2, [r3, #0]

	// Input year
	input.display[0]='y'; input.display[1]='e'; input.display[2]='a'; input.display[3]='r';
 800093a:	003b      	movs	r3, r7
 800093c:	2279      	movs	r2, #121	; 0x79
 800093e:	71da      	strb	r2, [r3, #7]
 8000940:	003b      	movs	r3, r7
 8000942:	2265      	movs	r2, #101	; 0x65
 8000944:	721a      	strb	r2, [r3, #8]
 8000946:	003b      	movs	r3, r7
 8000948:	2261      	movs	r2, #97	; 0x61
 800094a:	725a      	strb	r2, [r3, #9]
 800094c:	003b      	movs	r3, r7
 800094e:	2272      	movs	r2, #114	; 0x72
 8000950:	729a      	strb	r2, [r3, #10]
	input.idx_max=99;
 8000952:	003b      	movs	r3, r7
 8000954:	2263      	movs	r2, #99	; 0x63
 8000956:	715a      	strb	r2, [r3, #5]
	input.idx_min=0;
 8000958:	003b      	movs	r3, r7
 800095a:	2200      	movs	r2, #0
 800095c:	719a      	strb	r2, [r3, #6]
	input.idx_default_ten = year_t;
 800095e:	4b20      	ldr	r3, [pc, #128]	; (80009e0 <selectTime+0x1f4>)
 8000960:	781b      	ldrb	r3, [r3, #0]
 8000962:	b2da      	uxtb	r2, r3
 8000964:	003b      	movs	r3, r7
 8000966:	70da      	strb	r2, [r3, #3]
	input.idx_default_units = year_u;
 8000968:	4b1e      	ldr	r3, [pc, #120]	; (80009e4 <selectTime+0x1f8>)
 800096a:	781b      	ldrb	r3, [r3, #0]
 800096c:	b2da      	uxtb	r2, r3
 800096e:	003b      	movs	r3, r7
 8000970:	711a      	strb	r2, [r3, #4]
	menuInputService(&input);
 8000972:	003b      	movs	r3, r7
 8000974:	0018      	movs	r0, r3
 8000976:	f7ff fd3b 	bl	80003f0 <menuInputService>
	temp_t_year = input.temp_val_ten;
 800097a:	220f      	movs	r2, #15
 800097c:	18bb      	adds	r3, r7, r2
 800097e:	003a      	movs	r2, r7
 8000980:	7812      	ldrb	r2, [r2, #0]
 8000982:	701a      	strb	r2, [r3, #0]
	temp_u_year = input.temp_val_units;
 8000984:	210e      	movs	r1, #14
 8000986:	187b      	adds	r3, r7, r1
 8000988:	003a      	movs	r2, r7
 800098a:	7852      	ldrb	r2, [r2, #1]
 800098c:	701a      	strb	r2, [r3, #0]

	setDate(temp_t_day, temp_u_day, temp_t_month, temp_u_month, temp_t_year, temp_u_year);
 800098e:	193b      	adds	r3, r7, r4
 8000990:	781c      	ldrb	r4, [r3, #0]
 8000992:	2311      	movs	r3, #17
 8000994:	18fb      	adds	r3, r7, r3
 8000996:	781a      	ldrb	r2, [r3, #0]
 8000998:	19bb      	adds	r3, r7, r6
 800099a:	7819      	ldrb	r1, [r3, #0]
 800099c:	197b      	adds	r3, r7, r5
 800099e:	7818      	ldrb	r0, [r3, #0]
 80009a0:	250e      	movs	r5, #14
 80009a2:	197b      	adds	r3, r7, r5
 80009a4:	781b      	ldrb	r3, [r3, #0]
 80009a6:	9301      	str	r3, [sp, #4]
 80009a8:	230f      	movs	r3, #15
 80009aa:	18fb      	adds	r3, r7, r3
 80009ac:	781b      	ldrb	r3, [r3, #0]
 80009ae:	9300      	str	r3, [sp, #0]
 80009b0:	0023      	movs	r3, r4
 80009b2:	f000 fa2f 	bl	8000e14 <setDate>

}
 80009b6:	46c0      	nop			; (mov r8, r8)
 80009b8:	46bd      	mov	sp, r7
 80009ba:	b007      	add	sp, #28
 80009bc:	bdf0      	pop	{r4, r5, r6, r7, pc}
 80009be:	46c0      	nop			; (mov r8, r8)
 80009c0:	2000057c 	.word	0x2000057c
 80009c4:	2000005b 	.word	0x2000005b
 80009c8:	2000005a 	.word	0x2000005a
 80009cc:	20000064 	.word	0x20000064
 80009d0:	20000058 	.word	0x20000058
 80009d4:	20000063 	.word	0x20000063
 80009d8:	2000057d 	.word	0x2000057d
 80009dc:	20000069 	.word	0x20000069
 80009e0:	20000068 	.word	0x20000068
 80009e4:	20000059 	.word	0x20000059

080009e8 <displayMenu>:




void displayMenu (TMENU * str_wsk) {
 80009e8:	b580      	push	{r7, lr}
 80009ea:	b082      	sub	sp, #8
 80009ec:	af00      	add	r7, sp, #0
 80009ee:	6078      	str	r0, [r7, #4]

	str_wsk->menu_pos_max = 3;	// Number of menu options in this branch
 80009f0:	687b      	ldr	r3, [r7, #4]
 80009f2:	2203      	movs	r2, #3
 80009f4:	70da      	strb	r2, [r3, #3]

	// Register menu executive functions
	str_wsk->configuration = (void*)displayConfig;
 80009f6:	687b      	ldr	r3, [r7, #4]
 80009f8:	4a07      	ldr	r2, [pc, #28]	; (8000a18 <displayMenu+0x30>)
 80009fa:	605a      	str	r2, [r3, #4]
	str_wsk->alarm = (void*)displayAlarm;
 80009fc:	687b      	ldr	r3, [r7, #4]
 80009fe:	4a07      	ldr	r2, [pc, #28]	; (8000a1c <displayMenu+0x34>)
 8000a00:	60da      	str	r2, [r3, #12]
	str_wsk->study = (void*)displayStudy;
 8000a02:	687b      	ldr	r3, [r7, #4]
 8000a04:	4a06      	ldr	r2, [pc, #24]	; (8000a20 <displayMenu+0x38>)
 8000a06:	609a      	str	r2, [r3, #8]
	menuBranchService(str_wsk);
 8000a08:	687b      	ldr	r3, [r7, #4]
 8000a0a:	0018      	movs	r0, r3
 8000a0c:	f7ff fdb2 	bl	8000574 <menuBranchService>
}
 8000a10:	46c0      	nop			; (mov r8, r8)
 8000a12:	46bd      	mov	sp, r7
 8000a14:	b002      	add	sp, #8
 8000a16:	bd80      	pop	{r7, pc}
 8000a18:	08000a25 	.word	0x08000a25
 8000a1c:	08000b85 	.word	0x08000b85
 8000a20:	08000cf9 	.word	0x08000cf9

08000a24 <displayConfig>:


void displayConfig (TMENU * str_wsk) {
 8000a24:	b580      	push	{r7, lr}
 8000a26:	b084      	sub	sp, #16
 8000a28:	af00      	add	r7, sp, #0
 8000a2a:	6078      	str	r0, [r7, #4]
	LEDClr();
 8000a2c:	f001 fbd8 	bl	80021e0 <LEDClr>

	FillLEDArray(LED_buf, 0, 0, 0);
 8000a30:	4851      	ldr	r0, [pc, #324]	; (8000b78 <displayConfig+0x154>)
 8000a32:	2300      	movs	r3, #0
 8000a34:	2200      	movs	r2, #0
 8000a36:	2100      	movs	r1, #0
 8000a38:	f001 fed2 	bl	80027e0 <FillLEDArray>
	SPI_SEND_WSBUF(LED_buf, sizeof(LED_buf));
 8000a3c:	23a2      	movs	r3, #162	; 0xa2
 8000a3e:	00da      	lsls	r2, r3, #3
 8000a40:	4b4d      	ldr	r3, [pc, #308]	; (8000b78 <displayConfig+0x154>)
 8000a42:	0011      	movs	r1, r2
 8000a44:	0018      	movs	r0, r3
 8000a46:	f002 f875 	bl	8002b34 <SPI_SEND_WSBUF>

	DisplayLEDStr(config_options[str_wsk->menu_pos]);
 8000a4a:	687b      	ldr	r3, [r7, #4]
 8000a4c:	781b      	ldrb	r3, [r3, #0]
 8000a4e:	001a      	movs	r2, r3
 8000a50:	4b4a      	ldr	r3, [pc, #296]	; (8000b7c <displayConfig+0x158>)
 8000a52:	0092      	lsls	r2, r2, #2
 8000a54:	58d3      	ldr	r3, [r2, r3]
 8000a56:	0018      	movs	r0, r3
 8000a58:	f000 ffe5 	bl	8001a26 <DisplayLEDStr>

	button_flag[B_UP]=0;
 8000a5c:	4b48      	ldr	r3, [pc, #288]	; (8000b80 <displayConfig+0x15c>)
 8000a5e:	2200      	movs	r2, #0
 8000a60:	709a      	strb	r2, [r3, #2]
	button_flag[B_DOWN]=0;
 8000a62:	4b47      	ldr	r3, [pc, #284]	; (8000b80 <displayConfig+0x15c>)
 8000a64:	2200      	movs	r2, #0
 8000a66:	705a      	strb	r2, [r3, #1]
	button_flag[B_SET]=0;
 8000a68:	4b45      	ldr	r3, [pc, #276]	; (8000b80 <displayConfig+0x15c>)
 8000a6a:	2200      	movs	r2, #0
 8000a6c:	701a      	strb	r2, [r3, #0]

	str_wsk->nxt_level = 0;
 8000a6e:	687b      	ldr	r3, [r7, #4]
 8000a70:	2200      	movs	r2, #0
 8000a72:	705a      	strb	r2, [r3, #1]
	str_wsk->menu_pos = 0;
 8000a74:	687b      	ldr	r3, [r7, #4]
 8000a76:	2200      	movs	r2, #0
 8000a78:	701a      	strb	r2, [r3, #0]
	str_wsk->nxt_level = 0;
 8000a7a:	687b      	ldr	r3, [r7, #4]
 8000a7c:	2200      	movs	r2, #0
 8000a7e:	705a      	strb	r2, [r3, #1]
	str_wsk->back = 0;
 8000a80:	687b      	ldr	r3, [r7, #4]
 8000a82:	2200      	movs	r2, #0
 8000a84:	709a      	strb	r2, [r3, #2]

	uint8_t temp_pos;

	while(!str_wsk->back) {
 8000a86:	e070      	b.n	8000b6a <displayConfig+0x146>

		if (button_flag[B_UP]) {
 8000a88:	4b3d      	ldr	r3, [pc, #244]	; (8000b80 <displayConfig+0x15c>)
 8000a8a:	789b      	ldrb	r3, [r3, #2]
 8000a8c:	b2db      	uxtb	r3, r3
 8000a8e:	2b00      	cmp	r3, #0
 8000a90:	d012      	beq.n	8000ab8 <displayConfig+0x94>
			delay_ms(80);
 8000a92:	2050      	movs	r0, #80	; 0x50
 8000a94:	f000 fd44 	bl	8001520 <delay_ms>
			button_flag[B_UP]=0;
 8000a98:	4b39      	ldr	r3, [pc, #228]	; (8000b80 <displayConfig+0x15c>)
 8000a9a:	2200      	movs	r2, #0
 8000a9c:	709a      	strb	r2, [r3, #2]
			str_wsk->menu_pos++;
 8000a9e:	687b      	ldr	r3, [r7, #4]
 8000aa0:	781b      	ldrb	r3, [r3, #0]
 8000aa2:	3301      	adds	r3, #1
 8000aa4:	b2da      	uxtb	r2, r3
 8000aa6:	687b      	ldr	r3, [r7, #4]
 8000aa8:	701a      	strb	r2, [r3, #0]
			if(str_wsk->menu_pos>1) str_wsk->menu_pos=0;
 8000aaa:	687b      	ldr	r3, [r7, #4]
 8000aac:	781b      	ldrb	r3, [r3, #0]
 8000aae:	2b01      	cmp	r3, #1
 8000ab0:	d902      	bls.n	8000ab8 <displayConfig+0x94>
 8000ab2:	687b      	ldr	r3, [r7, #4]
 8000ab4:	2200      	movs	r2, #0
 8000ab6:	701a      	strb	r2, [r3, #0]
		}

		if (button_flag[B_DOWN]) {
 8000ab8:	4b31      	ldr	r3, [pc, #196]	; (8000b80 <displayConfig+0x15c>)
 8000aba:	785b      	ldrb	r3, [r3, #1]
 8000abc:	b2db      	uxtb	r3, r3
 8000abe:	2b00      	cmp	r3, #0
 8000ac0:	d012      	beq.n	8000ae8 <displayConfig+0xc4>
			delay_ms(80);
 8000ac2:	2050      	movs	r0, #80	; 0x50
 8000ac4:	f000 fd2c 	bl	8001520 <delay_ms>
			button_flag[B_DOWN]=0;
 8000ac8:	4b2d      	ldr	r3, [pc, #180]	; (8000b80 <displayConfig+0x15c>)
 8000aca:	2200      	movs	r2, #0
 8000acc:	705a      	strb	r2, [r3, #1]
			str_wsk->menu_pos--;
 8000ace:	687b      	ldr	r3, [r7, #4]
 8000ad0:	781b      	ldrb	r3, [r3, #0]
 8000ad2:	3b01      	subs	r3, #1
 8000ad4:	b2da      	uxtb	r2, r3
 8000ad6:	687b      	ldr	r3, [r7, #4]
 8000ad8:	701a      	strb	r2, [r3, #0]
			if(str_wsk->menu_pos>250) str_wsk->menu_pos=1;
 8000ada:	687b      	ldr	r3, [r7, #4]
 8000adc:	781b      	ldrb	r3, [r3, #0]
 8000ade:	2bfa      	cmp	r3, #250	; 0xfa
 8000ae0:	d902      	bls.n	8000ae8 <displayConfig+0xc4>
 8000ae2:	687b      	ldr	r3, [r7, #4]
 8000ae4:	2201      	movs	r2, #1
 8000ae6:	701a      	strb	r2, [r3, #0]
		}


		if (button_flag[B_SET]) {
 8000ae8:	4b25      	ldr	r3, [pc, #148]	; (8000b80 <displayConfig+0x15c>)
 8000aea:	781b      	ldrb	r3, [r3, #0]
 8000aec:	b2db      	uxtb	r3, r3
 8000aee:	2b00      	cmp	r3, #0
 8000af0:	d008      	beq.n	8000b04 <displayConfig+0xe0>
			delay_ms(80);
 8000af2:	2050      	movs	r0, #80	; 0x50
 8000af4:	f000 fd14 	bl	8001520 <delay_ms>
			button_flag[B_SET]=0;
 8000af8:	4b21      	ldr	r3, [pc, #132]	; (8000b80 <displayConfig+0x15c>)
 8000afa:	2200      	movs	r2, #0
 8000afc:	701a      	strb	r2, [r3, #0]
			str_wsk->nxt_level=1;
 8000afe:	687b      	ldr	r3, [r7, #4]
 8000b00:	2201      	movs	r2, #1
 8000b02:	705a      	strb	r2, [r3, #1]
		}

		if (temp_pos != str_wsk->menu_pos) {
 8000b04:	687b      	ldr	r3, [r7, #4]
 8000b06:	781b      	ldrb	r3, [r3, #0]
 8000b08:	220f      	movs	r2, #15
 8000b0a:	18ba      	adds	r2, r7, r2
 8000b0c:	7812      	ldrb	r2, [r2, #0]
 8000b0e:	429a      	cmp	r2, r3
 8000b10:	d00d      	beq.n	8000b2e <displayConfig+0x10a>
			DisplayLEDStr(config_options[str_wsk->menu_pos]);
 8000b12:	687b      	ldr	r3, [r7, #4]
 8000b14:	781b      	ldrb	r3, [r3, #0]
 8000b16:	001a      	movs	r2, r3
 8000b18:	4b18      	ldr	r3, [pc, #96]	; (8000b7c <displayConfig+0x158>)
 8000b1a:	0092      	lsls	r2, r2, #2
 8000b1c:	58d3      	ldr	r3, [r2, r3]
 8000b1e:	0018      	movs	r0, r3
 8000b20:	f000 ff81 	bl	8001a26 <DisplayLEDStr>
			temp_pos = str_wsk->menu_pos;
 8000b24:	230f      	movs	r3, #15
 8000b26:	18fb      	adds	r3, r7, r3
 8000b28:	687a      	ldr	r2, [r7, #4]
 8000b2a:	7812      	ldrb	r2, [r2, #0]
 8000b2c:	701a      	strb	r2, [r3, #0]
		}


			if(str_wsk->nxt_level) {
 8000b2e:	687b      	ldr	r3, [r7, #4]
 8000b30:	785b      	ldrb	r3, [r3, #1]
 8000b32:	2b00      	cmp	r3, #0
 8000b34:	d016      	beq.n	8000b64 <displayConfig+0x140>
				if (str_wsk->menu_pos == p_conf_back) {
 8000b36:	687b      	ldr	r3, [r7, #4]
 8000b38:	781b      	ldrb	r3, [r3, #0]
 8000b3a:	2b01      	cmp	r3, #1
 8000b3c:	d106      	bne.n	8000b4c <displayConfig+0x128>
					str_wsk->nxt_level = 0;
 8000b3e:	687b      	ldr	r3, [r7, #4]
 8000b40:	2200      	movs	r2, #0
 8000b42:	705a      	strb	r2, [r3, #1]
					str_wsk->back=1;
 8000b44:	687b      	ldr	r3, [r7, #4]
 8000b46:	2201      	movs	r2, #1
 8000b48:	709a      	strb	r2, [r3, #2]
					return;
 8000b4a:	e012      	b.n	8000b72 <displayConfig+0x14e>
				}
				if (str_wsk->menu_pos == p_conf_time ) {
 8000b4c:	687b      	ldr	r3, [r7, #4]
 8000b4e:	781b      	ldrb	r3, [r3, #0]
 8000b50:	2b00      	cmp	r3, #0
 8000b52:	d107      	bne.n	8000b64 <displayConfig+0x140>
					str_wsk->nxt_level = 0;
 8000b54:	687b      	ldr	r3, [r7, #4]
 8000b56:	2200      	movs	r2, #0
 8000b58:	705a      	strb	r2, [r3, #1]
					selectTime();
 8000b5a:	f7ff fe47 	bl	80007ec <selectTime>
					str_wsk->back=1;
 8000b5e:	687b      	ldr	r3, [r7, #4]
 8000b60:	2201      	movs	r2, #1
 8000b62:	709a      	strb	r2, [r3, #2]
				}

			}
			delay_ms(250);
 8000b64:	20fa      	movs	r0, #250	; 0xfa
 8000b66:	f000 fcdb 	bl	8001520 <delay_ms>
	while(!str_wsk->back) {
 8000b6a:	687b      	ldr	r3, [r7, #4]
 8000b6c:	789b      	ldrb	r3, [r3, #2]
 8000b6e:	2b00      	cmp	r3, #0
 8000b70:	d08a      	beq.n	8000a88 <displayConfig+0x64>
		}
}
 8000b72:	46bd      	mov	sp, r7
 8000b74:	b004      	add	sp, #16
 8000b76:	bd80      	pop	{r7, pc}
 8000b78:	2000006c 	.word	0x2000006c
 8000b7c:	20000010 	.word	0x20000010
 8000b80:	20000060 	.word	0x20000060

08000b84 <displayAlarm>:




void displayAlarm (TMENU * str_wsk) {
 8000b84:	b580      	push	{r7, lr}
 8000b86:	b084      	sub	sp, #16
 8000b88:	af00      	add	r7, sp, #0
 8000b8a:	6078      	str	r0, [r7, #4]
	LEDClr();
 8000b8c:	f001 fb28 	bl	80021e0 <LEDClr>

	FillLEDArray(LED_buf, 0, 0, 0);
 8000b90:	4856      	ldr	r0, [pc, #344]	; (8000cec <displayAlarm+0x168>)
 8000b92:	2300      	movs	r3, #0
 8000b94:	2200      	movs	r2, #0
 8000b96:	2100      	movs	r1, #0
 8000b98:	f001 fe22 	bl	80027e0 <FillLEDArray>
	SPI_SEND_WSBUF(LED_buf, sizeof(LED_buf));
 8000b9c:	23a2      	movs	r3, #162	; 0xa2
 8000b9e:	00da      	lsls	r2, r3, #3
 8000ba0:	4b52      	ldr	r3, [pc, #328]	; (8000cec <displayAlarm+0x168>)
 8000ba2:	0011      	movs	r1, r2
 8000ba4:	0018      	movs	r0, r3
 8000ba6:	f001 ffc5 	bl	8002b34 <SPI_SEND_WSBUF>


	button_flag[B_UP]=0;
 8000baa:	4b51      	ldr	r3, [pc, #324]	; (8000cf0 <displayAlarm+0x16c>)
 8000bac:	2200      	movs	r2, #0
 8000bae:	709a      	strb	r2, [r3, #2]
	button_flag[B_DOWN]=0;
 8000bb0:	4b4f      	ldr	r3, [pc, #316]	; (8000cf0 <displayAlarm+0x16c>)
 8000bb2:	2200      	movs	r2, #0
 8000bb4:	705a      	strb	r2, [r3, #1]
	button_flag[B_SET]=0;
 8000bb6:	4b4e      	ldr	r3, [pc, #312]	; (8000cf0 <displayAlarm+0x16c>)
 8000bb8:	2200      	movs	r2, #0
 8000bba:	701a      	strb	r2, [r3, #0]

	str_wsk->nxt_level = 0;
 8000bbc:	687b      	ldr	r3, [r7, #4]
 8000bbe:	2200      	movs	r2, #0
 8000bc0:	705a      	strb	r2, [r3, #1]
	str_wsk->menu_pos = 0;
 8000bc2:	687b      	ldr	r3, [r7, #4]
 8000bc4:	2200      	movs	r2, #0
 8000bc6:	701a      	strb	r2, [r3, #0]
	str_wsk->back = 0;
 8000bc8:	687b      	ldr	r3, [r7, #4]
 8000bca:	2200      	movs	r2, #0
 8000bcc:	709a      	strb	r2, [r3, #2]

	DisplayLEDStr(alarm_options[str_wsk->menu_pos]);
 8000bce:	687b      	ldr	r3, [r7, #4]
 8000bd0:	781b      	ldrb	r3, [r3, #0]
 8000bd2:	001a      	movs	r2, r3
 8000bd4:	4b47      	ldr	r3, [pc, #284]	; (8000cf4 <displayAlarm+0x170>)
 8000bd6:	0092      	lsls	r2, r2, #2
 8000bd8:	58d3      	ldr	r3, [r2, r3]
 8000bda:	0018      	movs	r0, r3
 8000bdc:	f000 ff23 	bl	8001a26 <DisplayLEDStr>

	uint8_t temp_pos;

	while(!str_wsk->back) {
 8000be0:	e07c      	b.n	8000cdc <displayAlarm+0x158>

		if (button_flag[B_UP]) {
 8000be2:	4b43      	ldr	r3, [pc, #268]	; (8000cf0 <displayAlarm+0x16c>)
 8000be4:	789b      	ldrb	r3, [r3, #2]
 8000be6:	b2db      	uxtb	r3, r3
 8000be8:	2b00      	cmp	r3, #0
 8000bea:	d012      	beq.n	8000c12 <displayAlarm+0x8e>
			delay_ms(80);
 8000bec:	2050      	movs	r0, #80	; 0x50
 8000bee:	f000 fc97 	bl	8001520 <delay_ms>
			button_flag[B_UP]=0;
 8000bf2:	4b3f      	ldr	r3, [pc, #252]	; (8000cf0 <displayAlarm+0x16c>)
 8000bf4:	2200      	movs	r2, #0
 8000bf6:	709a      	strb	r2, [r3, #2]
			str_wsk->menu_pos++;
 8000bf8:	687b      	ldr	r3, [r7, #4]
 8000bfa:	781b      	ldrb	r3, [r3, #0]
 8000bfc:	3301      	adds	r3, #1
 8000bfe:	b2da      	uxtb	r2, r3
 8000c00:	687b      	ldr	r3, [r7, #4]
 8000c02:	701a      	strb	r2, [r3, #0]
			if(str_wsk->menu_pos>2) str_wsk->menu_pos=0;
 8000c04:	687b      	ldr	r3, [r7, #4]
 8000c06:	781b      	ldrb	r3, [r3, #0]
 8000c08:	2b02      	cmp	r3, #2
 8000c0a:	d902      	bls.n	8000c12 <displayAlarm+0x8e>
 8000c0c:	687b      	ldr	r3, [r7, #4]
 8000c0e:	2200      	movs	r2, #0
 8000c10:	701a      	strb	r2, [r3, #0]
		}

		if (button_flag[B_DOWN]) {
 8000c12:	4b37      	ldr	r3, [pc, #220]	; (8000cf0 <displayAlarm+0x16c>)
 8000c14:	785b      	ldrb	r3, [r3, #1]
 8000c16:	b2db      	uxtb	r3, r3
 8000c18:	2b00      	cmp	r3, #0
 8000c1a:	d012      	beq.n	8000c42 <displayAlarm+0xbe>
			delay_ms(80);
 8000c1c:	2050      	movs	r0, #80	; 0x50
 8000c1e:	f000 fc7f 	bl	8001520 <delay_ms>
			button_flag[B_DOWN]=0;
 8000c22:	4b33      	ldr	r3, [pc, #204]	; (8000cf0 <displayAlarm+0x16c>)
 8000c24:	2200      	movs	r2, #0
 8000c26:	705a      	strb	r2, [r3, #1]
			str_wsk->menu_pos--;
 8000c28:	687b      	ldr	r3, [r7, #4]
 8000c2a:	781b      	ldrb	r3, [r3, #0]
 8000c2c:	3b01      	subs	r3, #1
 8000c2e:	b2da      	uxtb	r2, r3
 8000c30:	687b      	ldr	r3, [r7, #4]
 8000c32:	701a      	strb	r2, [r3, #0]
			if(str_wsk->menu_pos>250) str_wsk->menu_pos=2;
 8000c34:	687b      	ldr	r3, [r7, #4]
 8000c36:	781b      	ldrb	r3, [r3, #0]
 8000c38:	2bfa      	cmp	r3, #250	; 0xfa
 8000c3a:	d902      	bls.n	8000c42 <displayAlarm+0xbe>
 8000c3c:	687b      	ldr	r3, [r7, #4]
 8000c3e:	2202      	movs	r2, #2
 8000c40:	701a      	strb	r2, [r3, #0]
		}


		if (button_flag[B_SET]) {
 8000c42:	4b2b      	ldr	r3, [pc, #172]	; (8000cf0 <displayAlarm+0x16c>)
 8000c44:	781b      	ldrb	r3, [r3, #0]
 8000c46:	b2db      	uxtb	r3, r3
 8000c48:	2b00      	cmp	r3, #0
 8000c4a:	d008      	beq.n	8000c5e <displayAlarm+0xda>
			delay_ms(80);
 8000c4c:	2050      	movs	r0, #80	; 0x50
 8000c4e:	f000 fc67 	bl	8001520 <delay_ms>
			button_flag[B_SET]=0;
 8000c52:	4b27      	ldr	r3, [pc, #156]	; (8000cf0 <displayAlarm+0x16c>)
 8000c54:	2200      	movs	r2, #0
 8000c56:	701a      	strb	r2, [r3, #0]
			str_wsk->nxt_level=1;
 8000c58:	687b      	ldr	r3, [r7, #4]
 8000c5a:	2201      	movs	r2, #1
 8000c5c:	705a      	strb	r2, [r3, #1]
		}

		if (temp_pos != str_wsk->menu_pos) {
 8000c5e:	687b      	ldr	r3, [r7, #4]
 8000c60:	781b      	ldrb	r3, [r3, #0]
 8000c62:	220f      	movs	r2, #15
 8000c64:	18ba      	adds	r2, r7, r2
 8000c66:	7812      	ldrb	r2, [r2, #0]
 8000c68:	429a      	cmp	r2, r3
 8000c6a:	d00d      	beq.n	8000c88 <displayAlarm+0x104>
			DisplayLEDStr(alarm_options[str_wsk->menu_pos]);
 8000c6c:	687b      	ldr	r3, [r7, #4]
 8000c6e:	781b      	ldrb	r3, [r3, #0]
 8000c70:	001a      	movs	r2, r3
 8000c72:	4b20      	ldr	r3, [pc, #128]	; (8000cf4 <displayAlarm+0x170>)
 8000c74:	0092      	lsls	r2, r2, #2
 8000c76:	58d3      	ldr	r3, [r2, r3]
 8000c78:	0018      	movs	r0, r3
 8000c7a:	f000 fed4 	bl	8001a26 <DisplayLEDStr>
			temp_pos = str_wsk->menu_pos;
 8000c7e:	230f      	movs	r3, #15
 8000c80:	18fb      	adds	r3, r7, r3
 8000c82:	687a      	ldr	r2, [r7, #4]
 8000c84:	7812      	ldrb	r2, [r2, #0]
 8000c86:	701a      	strb	r2, [r3, #0]
		}


			if(str_wsk->nxt_level) {
 8000c88:	687b      	ldr	r3, [r7, #4]
 8000c8a:	785b      	ldrb	r3, [r3, #1]
 8000c8c:	2b00      	cmp	r3, #0
 8000c8e:	d022      	beq.n	8000cd6 <displayAlarm+0x152>
				if (str_wsk->menu_pos == p_al_back) {
 8000c90:	687b      	ldr	r3, [r7, #4]
 8000c92:	781b      	ldrb	r3, [r3, #0]
 8000c94:	2b02      	cmp	r3, #2
 8000c96:	d106      	bne.n	8000ca6 <displayAlarm+0x122>
					str_wsk->nxt_level = 0;
 8000c98:	687b      	ldr	r3, [r7, #4]
 8000c9a:	2200      	movs	r2, #0
 8000c9c:	705a      	strb	r2, [r3, #1]
					str_wsk->back=1;
 8000c9e:	687b      	ldr	r3, [r7, #4]
 8000ca0:	2201      	movs	r2, #1
 8000ca2:	709a      	strb	r2, [r3, #2]
					return;
 8000ca4:	e01f      	b.n	8000ce6 <displayAlarm+0x162>
				}
				if (str_wsk->menu_pos == p_al_time ) {
 8000ca6:	687b      	ldr	r3, [r7, #4]
 8000ca8:	781b      	ldrb	r3, [r3, #0]
 8000caa:	2b00      	cmp	r3, #0
 8000cac:	d107      	bne.n	8000cbe <displayAlarm+0x13a>
					str_wsk->nxt_level = 0;
 8000cae:	687b      	ldr	r3, [r7, #4]
 8000cb0:	2200      	movs	r2, #0
 8000cb2:	705a      	strb	r2, [r3, #1]
					selectAlarm();
 8000cb4:	f7ff fd18 	bl	80006e8 <selectAlarm>
					str_wsk->back=1;
 8000cb8:	687b      	ldr	r3, [r7, #4]
 8000cba:	2201      	movs	r2, #1
 8000cbc:	709a      	strb	r2, [r3, #2]
				}
				if (str_wsk->menu_pos == p_al_enable ) {
 8000cbe:	687b      	ldr	r3, [r7, #4]
 8000cc0:	781b      	ldrb	r3, [r3, #0]
 8000cc2:	2b01      	cmp	r3, #1
 8000cc4:	d107      	bne.n	8000cd6 <displayAlarm+0x152>
					str_wsk->nxt_level = 0;
 8000cc6:	687b      	ldr	r3, [r7, #4]
 8000cc8:	2200      	movs	r2, #0
 8000cca:	705a      	strb	r2, [r3, #1]
					EnableAlarm();
 8000ccc:	f7ff fd6c 	bl	80007a8 <EnableAlarm>
					str_wsk->back=1;
 8000cd0:	687b      	ldr	r3, [r7, #4]
 8000cd2:	2201      	movs	r2, #1
 8000cd4:	709a      	strb	r2, [r3, #2]
				}

			}

			delay_ms(250);
 8000cd6:	20fa      	movs	r0, #250	; 0xfa
 8000cd8:	f000 fc22 	bl	8001520 <delay_ms>
	while(!str_wsk->back) {
 8000cdc:	687b      	ldr	r3, [r7, #4]
 8000cde:	789b      	ldrb	r3, [r3, #2]
 8000ce0:	2b00      	cmp	r3, #0
 8000ce2:	d100      	bne.n	8000ce6 <displayAlarm+0x162>
 8000ce4:	e77d      	b.n	8000be2 <displayAlarm+0x5e>
		}
}
 8000ce6:	46bd      	mov	sp, r7
 8000ce8:	b004      	add	sp, #16
 8000cea:	bd80      	pop	{r7, pc}
 8000cec:	2000006c 	.word	0x2000006c
 8000cf0:	20000060 	.word	0x20000060
 8000cf4:	20000018 	.word	0x20000018

08000cf8 <displayStudy>:




void displayStudy (TMENU * str_wsk) {
 8000cf8:	b580      	push	{r7, lr}
 8000cfa:	b082      	sub	sp, #8
 8000cfc:	af00      	add	r7, sp, #0
 8000cfe:	6078      	str	r0, [r7, #4]

	// To be done

}
 8000d00:	46c0      	nop			; (mov r8, r8)
 8000d02:	46bd      	mov	sp, r7
 8000d04:	b002      	add	sp, #8
 8000d06:	bd80      	pop	{r7, pc}

08000d08 <decToBcd>:


uint8_t decToBcd(uint8_t val) {
 8000d08:	b590      	push	{r4, r7, lr}
 8000d0a:	b083      	sub	sp, #12
 8000d0c:	af00      	add	r7, sp, #0
 8000d0e:	0002      	movs	r2, r0
 8000d10:	1dfb      	adds	r3, r7, #7
 8000d12:	701a      	strb	r2, [r3, #0]
  return ((val/10*16) + (val%10));
 8000d14:	1dfb      	adds	r3, r7, #7
 8000d16:	781b      	ldrb	r3, [r3, #0]
 8000d18:	210a      	movs	r1, #10
 8000d1a:	0018      	movs	r0, r3
 8000d1c:	f7ff f9f2 	bl	8000104 <__udivsi3>
 8000d20:	0003      	movs	r3, r0
 8000d22:	b2db      	uxtb	r3, r3
 8000d24:	011b      	lsls	r3, r3, #4
 8000d26:	b2dc      	uxtb	r4, r3
 8000d28:	1dfb      	adds	r3, r7, #7
 8000d2a:	781b      	ldrb	r3, [r3, #0]
 8000d2c:	210a      	movs	r1, #10
 8000d2e:	0018      	movs	r0, r3
 8000d30:	f7ff fa6e 	bl	8000210 <__aeabi_uidivmod>
 8000d34:	000b      	movs	r3, r1
 8000d36:	b2db      	uxtb	r3, r3
 8000d38:	18e3      	adds	r3, r4, r3
 8000d3a:	b2db      	uxtb	r3, r3
}
 8000d3c:	0018      	movs	r0, r3
 8000d3e:	46bd      	mov	sp, r7
 8000d40:	b003      	add	sp, #12
 8000d42:	bd90      	pop	{r4, r7, pc}

08000d44 <setTime>:

#define TEMP_TR_MASK 0x7f7f7f
#define TEMP_DR_MASK 0xffff3f


void setTime(uint8_t t_hour, uint8_t u_hour, uint8_t t_minute, uint8_t u_minute) {
 8000d44:	b5b0      	push	{r4, r5, r7, lr}
 8000d46:	b084      	sub	sp, #16
 8000d48:	af00      	add	r7, sp, #0
 8000d4a:	0005      	movs	r5, r0
 8000d4c:	000c      	movs	r4, r1
 8000d4e:	0010      	movs	r0, r2
 8000d50:	0019      	movs	r1, r3
 8000d52:	1dfb      	adds	r3, r7, #7
 8000d54:	1c2a      	adds	r2, r5, #0
 8000d56:	701a      	strb	r2, [r3, #0]
 8000d58:	1dbb      	adds	r3, r7, #6
 8000d5a:	1c22      	adds	r2, r4, #0
 8000d5c:	701a      	strb	r2, [r3, #0]
 8000d5e:	1d7b      	adds	r3, r7, #5
 8000d60:	1c02      	adds	r2, r0, #0
 8000d62:	701a      	strb	r2, [r3, #0]
 8000d64:	1d3b      	adds	r3, r7, #4
 8000d66:	1c0a      	adds	r2, r1, #0
 8000d68:	701a      	strb	r2, [r3, #0]
	if(t_hour > 2 || u_hour > 9 || t_minute > 5 || u_minute > 9) return;	// Verify the input
 8000d6a:	1dfb      	adds	r3, r7, #7
 8000d6c:	781b      	ldrb	r3, [r3, #0]
 8000d6e:	2b02      	cmp	r3, #2
 8000d70:	d847      	bhi.n	8000e02 <setTime+0xbe>
 8000d72:	1dbb      	adds	r3, r7, #6
 8000d74:	781b      	ldrb	r3, [r3, #0]
 8000d76:	2b09      	cmp	r3, #9
 8000d78:	d843      	bhi.n	8000e02 <setTime+0xbe>
 8000d7a:	1d7b      	adds	r3, r7, #5
 8000d7c:	781b      	ldrb	r3, [r3, #0]
 8000d7e:	2b05      	cmp	r3, #5
 8000d80:	d83f      	bhi.n	8000e02 <setTime+0xbe>
 8000d82:	1d3b      	adds	r3, r7, #4
 8000d84:	781b      	ldrb	r3, [r3, #0]
 8000d86:	2b09      	cmp	r3, #9
 8000d88:	d83b      	bhi.n	8000e02 <setTime+0xbe>

	uint32_t TR_TEMP = 0;	// Temporary RTC TR register
 8000d8a:	2300      	movs	r3, #0
 8000d8c:	60fb      	str	r3, [r7, #12]


	// Load appropriate values to the temporary time register (TR)
	TR_TEMP |= (t_hour<<20);
 8000d8e:	1dfb      	adds	r3, r7, #7
 8000d90:	781b      	ldrb	r3, [r3, #0]
 8000d92:	051b      	lsls	r3, r3, #20
 8000d94:	001a      	movs	r2, r3
 8000d96:	68fb      	ldr	r3, [r7, #12]
 8000d98:	4313      	orrs	r3, r2
 8000d9a:	60fb      	str	r3, [r7, #12]
	TR_TEMP |= (u_hour<<16);
 8000d9c:	1dbb      	adds	r3, r7, #6
 8000d9e:	781b      	ldrb	r3, [r3, #0]
 8000da0:	041b      	lsls	r3, r3, #16
 8000da2:	001a      	movs	r2, r3
 8000da4:	68fb      	ldr	r3, [r7, #12]
 8000da6:	4313      	orrs	r3, r2
 8000da8:	60fb      	str	r3, [r7, #12]
	TR_TEMP |= (t_minute<<12);
 8000daa:	1d7b      	adds	r3, r7, #5
 8000dac:	781b      	ldrb	r3, [r3, #0]
 8000dae:	031b      	lsls	r3, r3, #12
 8000db0:	001a      	movs	r2, r3
 8000db2:	68fb      	ldr	r3, [r7, #12]
 8000db4:	4313      	orrs	r3, r2
 8000db6:	60fb      	str	r3, [r7, #12]
	TR_TEMP |= (u_minute<<8);
 8000db8:	1d3b      	adds	r3, r7, #4
 8000dba:	781b      	ldrb	r3, [r3, #0]
 8000dbc:	021b      	lsls	r3, r3, #8
 8000dbe:	001a      	movs	r2, r3
 8000dc0:	68fb      	ldr	r3, [r7, #12]
 8000dc2:	4313      	orrs	r3, r2
 8000dc4:	60fb      	str	r3, [r7, #12]

	// RTC write protection keyes
	RTC->WPR = 0xca;
 8000dc6:	4b11      	ldr	r3, [pc, #68]	; (8000e0c <setTime+0xc8>)
 8000dc8:	22ca      	movs	r2, #202	; 0xca
 8000dca:	625a      	str	r2, [r3, #36]	; 0x24
	RTC->WPR = 0x53;
 8000dcc:	4b0f      	ldr	r3, [pc, #60]	; (8000e0c <setTime+0xc8>)
 8000dce:	2253      	movs	r2, #83	; 0x53
 8000dd0:	625a      	str	r2, [r3, #36]	; 0x24

	// Enter clock init mode
	RTC->ICSR |= RTC_ICSR_INIT;
 8000dd2:	4b0e      	ldr	r3, [pc, #56]	; (8000e0c <setTime+0xc8>)
 8000dd4:	68da      	ldr	r2, [r3, #12]
 8000dd6:	4b0d      	ldr	r3, [pc, #52]	; (8000e0c <setTime+0xc8>)
 8000dd8:	2180      	movs	r1, #128	; 0x80
 8000dda:	430a      	orrs	r2, r1
 8000ddc:	60da      	str	r2, [r3, #12]
	while ((RTC->ICSR & RTC_ICSR_INITF) == 0);	// Wait until ready to update
 8000dde:	46c0      	nop			; (mov r8, r8)
 8000de0:	4b0a      	ldr	r3, [pc, #40]	; (8000e0c <setTime+0xc8>)
 8000de2:	68db      	ldr	r3, [r3, #12]
 8000de4:	2240      	movs	r2, #64	; 0x40
 8000de6:	4013      	ands	r3, r2
 8000de8:	d0fa      	beq.n	8000de0 <setTime+0x9c>

	RTC->TR = (TR_TEMP & TEMP_TR_MASK);		// Update clock registers
 8000dea:	4b08      	ldr	r3, [pc, #32]	; (8000e0c <setTime+0xc8>)
 8000dec:	68fa      	ldr	r2, [r7, #12]
 8000dee:	4908      	ldr	r1, [pc, #32]	; (8000e10 <setTime+0xcc>)
 8000df0:	400a      	ands	r2, r1
 8000df2:	601a      	str	r2, [r3, #0]

	RTC->ICSR &= ~RTC_ICSR_INIT;	// Disable RTC init mode
 8000df4:	4b05      	ldr	r3, [pc, #20]	; (8000e0c <setTime+0xc8>)
 8000df6:	68da      	ldr	r2, [r3, #12]
 8000df8:	4b04      	ldr	r3, [pc, #16]	; (8000e0c <setTime+0xc8>)
 8000dfa:	2180      	movs	r1, #128	; 0x80
 8000dfc:	438a      	bics	r2, r1
 8000dfe:	60da      	str	r2, [r3, #12]
 8000e00:	e000      	b.n	8000e04 <setTime+0xc0>
	if(t_hour > 2 || u_hour > 9 || t_minute > 5 || u_minute > 9) return;	// Verify the input
 8000e02:	46c0      	nop			; (mov r8, r8)

}
 8000e04:	46bd      	mov	sp, r7
 8000e06:	b004      	add	sp, #16
 8000e08:	bdb0      	pop	{r4, r5, r7, pc}
 8000e0a:	46c0      	nop			; (mov r8, r8)
 8000e0c:	40002800 	.word	0x40002800
 8000e10:	007f7f7f 	.word	0x007f7f7f

08000e14 <setDate>:




void setDate(uint8_t t_day, uint8_t u_day, uint8_t t_month, uint8_t u_month, uint8_t t_year, uint8_t u_year) {
 8000e14:	b5b0      	push	{r4, r5, r7, lr}
 8000e16:	b084      	sub	sp, #16
 8000e18:	af00      	add	r7, sp, #0
 8000e1a:	0005      	movs	r5, r0
 8000e1c:	000c      	movs	r4, r1
 8000e1e:	0010      	movs	r0, r2
 8000e20:	0019      	movs	r1, r3
 8000e22:	1dfb      	adds	r3, r7, #7
 8000e24:	1c2a      	adds	r2, r5, #0
 8000e26:	701a      	strb	r2, [r3, #0]
 8000e28:	1dbb      	adds	r3, r7, #6
 8000e2a:	1c22      	adds	r2, r4, #0
 8000e2c:	701a      	strb	r2, [r3, #0]
 8000e2e:	1d7b      	adds	r3, r7, #5
 8000e30:	1c02      	adds	r2, r0, #0
 8000e32:	701a      	strb	r2, [r3, #0]
 8000e34:	1d3b      	adds	r3, r7, #4
 8000e36:	1c0a      	adds	r2, r1, #0
 8000e38:	701a      	strb	r2, [r3, #0]
	if(t_day > 3 || u_day > 9 || t_month > 1 || u_month > 9 || t_year>9 || u_year>9) return;	// Verify input
 8000e3a:	1dfb      	adds	r3, r7, #7
 8000e3c:	781b      	ldrb	r3, [r3, #0]
 8000e3e:	2b03      	cmp	r3, #3
 8000e40:	d85f      	bhi.n	8000f02 <setDate+0xee>
 8000e42:	1dbb      	adds	r3, r7, #6
 8000e44:	781b      	ldrb	r3, [r3, #0]
 8000e46:	2b09      	cmp	r3, #9
 8000e48:	d85b      	bhi.n	8000f02 <setDate+0xee>
 8000e4a:	1d7b      	adds	r3, r7, #5
 8000e4c:	781b      	ldrb	r3, [r3, #0]
 8000e4e:	2b01      	cmp	r3, #1
 8000e50:	d857      	bhi.n	8000f02 <setDate+0xee>
 8000e52:	1d3b      	adds	r3, r7, #4
 8000e54:	781b      	ldrb	r3, [r3, #0]
 8000e56:	2b09      	cmp	r3, #9
 8000e58:	d853      	bhi.n	8000f02 <setDate+0xee>
 8000e5a:	2320      	movs	r3, #32
 8000e5c:	18fb      	adds	r3, r7, r3
 8000e5e:	781b      	ldrb	r3, [r3, #0]
 8000e60:	2b09      	cmp	r3, #9
 8000e62:	d84e      	bhi.n	8000f02 <setDate+0xee>
 8000e64:	2324      	movs	r3, #36	; 0x24
 8000e66:	18fb      	adds	r3, r7, r3
 8000e68:	781b      	ldrb	r3, [r3, #0]
 8000e6a:	2b09      	cmp	r3, #9
 8000e6c:	d849      	bhi.n	8000f02 <setDate+0xee>

	uint32_t DR_TEMP = 0;	// Temporary RTC DR register
 8000e6e:	2300      	movs	r3, #0
 8000e70:	60fb      	str	r3, [r7, #12]

	// Load appropriate values to the temporary data register (DR)
	DR_TEMP |= (t_day<<4);
 8000e72:	1dfb      	adds	r3, r7, #7
 8000e74:	781b      	ldrb	r3, [r3, #0]
 8000e76:	011b      	lsls	r3, r3, #4
 8000e78:	001a      	movs	r2, r3
 8000e7a:	68fb      	ldr	r3, [r7, #12]
 8000e7c:	4313      	orrs	r3, r2
 8000e7e:	60fb      	str	r3, [r7, #12]
	DR_TEMP |= (u_day<<0);
 8000e80:	1dbb      	adds	r3, r7, #6
 8000e82:	781b      	ldrb	r3, [r3, #0]
 8000e84:	68fa      	ldr	r2, [r7, #12]
 8000e86:	4313      	orrs	r3, r2
 8000e88:	60fb      	str	r3, [r7, #12]
	DR_TEMP |= (t_month<<12);
 8000e8a:	1d7b      	adds	r3, r7, #5
 8000e8c:	781b      	ldrb	r3, [r3, #0]
 8000e8e:	031b      	lsls	r3, r3, #12
 8000e90:	001a      	movs	r2, r3
 8000e92:	68fb      	ldr	r3, [r7, #12]
 8000e94:	4313      	orrs	r3, r2
 8000e96:	60fb      	str	r3, [r7, #12]
	DR_TEMP |= (u_month<<8);
 8000e98:	1d3b      	adds	r3, r7, #4
 8000e9a:	781b      	ldrb	r3, [r3, #0]
 8000e9c:	021b      	lsls	r3, r3, #8
 8000e9e:	001a      	movs	r2, r3
 8000ea0:	68fb      	ldr	r3, [r7, #12]
 8000ea2:	4313      	orrs	r3, r2
 8000ea4:	60fb      	str	r3, [r7, #12]
	DR_TEMP |= (t_year<<20);
 8000ea6:	2320      	movs	r3, #32
 8000ea8:	18fb      	adds	r3, r7, r3
 8000eaa:	781b      	ldrb	r3, [r3, #0]
 8000eac:	051b      	lsls	r3, r3, #20
 8000eae:	001a      	movs	r2, r3
 8000eb0:	68fb      	ldr	r3, [r7, #12]
 8000eb2:	4313      	orrs	r3, r2
 8000eb4:	60fb      	str	r3, [r7, #12]
	DR_TEMP |= (u_year<<16);
 8000eb6:	2324      	movs	r3, #36	; 0x24
 8000eb8:	18fb      	adds	r3, r7, r3
 8000eba:	781b      	ldrb	r3, [r3, #0]
 8000ebc:	041b      	lsls	r3, r3, #16
 8000ebe:	001a      	movs	r2, r3
 8000ec0:	68fb      	ldr	r3, [r7, #12]
 8000ec2:	4313      	orrs	r3, r2
 8000ec4:	60fb      	str	r3, [r7, #12]

	// RTC write protection keyes
	RTC->WPR = 0xca;
 8000ec6:	4b11      	ldr	r3, [pc, #68]	; (8000f0c <setDate+0xf8>)
 8000ec8:	22ca      	movs	r2, #202	; 0xca
 8000eca:	625a      	str	r2, [r3, #36]	; 0x24
	RTC->WPR = 0x53;
 8000ecc:	4b0f      	ldr	r3, [pc, #60]	; (8000f0c <setDate+0xf8>)
 8000ece:	2253      	movs	r2, #83	; 0x53
 8000ed0:	625a      	str	r2, [r3, #36]	; 0x24

	// Enter clock init mode
	RTC->ICSR |= RTC_ICSR_INIT;
 8000ed2:	4b0e      	ldr	r3, [pc, #56]	; (8000f0c <setDate+0xf8>)
 8000ed4:	68da      	ldr	r2, [r3, #12]
 8000ed6:	4b0d      	ldr	r3, [pc, #52]	; (8000f0c <setDate+0xf8>)
 8000ed8:	2180      	movs	r1, #128	; 0x80
 8000eda:	430a      	orrs	r2, r1
 8000edc:	60da      	str	r2, [r3, #12]
	while ((RTC->ICSR & RTC_ICSR_INITF) == 0);	// Wait until ready to update
 8000ede:	46c0      	nop			; (mov r8, r8)
 8000ee0:	4b0a      	ldr	r3, [pc, #40]	; (8000f0c <setDate+0xf8>)
 8000ee2:	68db      	ldr	r3, [r3, #12]
 8000ee4:	2240      	movs	r2, #64	; 0x40
 8000ee6:	4013      	ands	r3, r2
 8000ee8:	d0fa      	beq.n	8000ee0 <setDate+0xcc>

	RTC->DR = (DR_TEMP & TEMP_DR_MASK);		// Update clock registers
 8000eea:	4b08      	ldr	r3, [pc, #32]	; (8000f0c <setDate+0xf8>)
 8000eec:	68fa      	ldr	r2, [r7, #12]
 8000eee:	4908      	ldr	r1, [pc, #32]	; (8000f10 <setDate+0xfc>)
 8000ef0:	400a      	ands	r2, r1
 8000ef2:	605a      	str	r2, [r3, #4]

	RTC->ICSR &= ~RTC_ICSR_INIT;	// Disable RTC init mode
 8000ef4:	4b05      	ldr	r3, [pc, #20]	; (8000f0c <setDate+0xf8>)
 8000ef6:	68da      	ldr	r2, [r3, #12]
 8000ef8:	4b04      	ldr	r3, [pc, #16]	; (8000f0c <setDate+0xf8>)
 8000efa:	2180      	movs	r1, #128	; 0x80
 8000efc:	438a      	bics	r2, r1
 8000efe:	60da      	str	r2, [r3, #12]
 8000f00:	e000      	b.n	8000f04 <setDate+0xf0>
	if(t_day > 3 || u_day > 9 || t_month > 1 || u_month > 9 || t_year>9 || u_year>9) return;	// Verify input
 8000f02:	46c0      	nop			; (mov r8, r8)

}
 8000f04:	46bd      	mov	sp, r7
 8000f06:	b004      	add	sp, #16
 8000f08:	bdb0      	pop	{r4, r5, r7, pc}
 8000f0a:	46c0      	nop			; (mov r8, r8)
 8000f0c:	40002800 	.word	0x40002800
 8000f10:	00ffff3f 	.word	0x00ffff3f

08000f14 <TIM16_IRQHandler>:




__attribute__((interrupt)) void TIM16_IRQHandler(void)	{
 8000f14:	b580      	push	{r7, lr}
 8000f16:	af00      	add	r7, sp, #0
	if (TIM16->SR & TIM_SR_CC1IF)	{
 8000f18:	4b3c      	ldr	r3, [pc, #240]	; (800100c <TIM16_IRQHandler+0xf8>)
 8000f1a:	691b      	ldr	r3, [r3, #16]
 8000f1c:	2202      	movs	r2, #2
 8000f1e:	4013      	ands	r3, r2
 8000f20:	d070      	beq.n	8001004 <TIM16_IRQHandler+0xf0>
		TIM16->SR &= ~TIM_SR_CC1IF;	// Clear flag
 8000f22:	4b3a      	ldr	r3, [pc, #232]	; (800100c <TIM16_IRQHandler+0xf8>)
 8000f24:	691a      	ldr	r2, [r3, #16]
 8000f26:	4b39      	ldr	r3, [pc, #228]	; (800100c <TIM16_IRQHandler+0xf8>)
 8000f28:	2102      	movs	r1, #2
 8000f2a:	438a      	bics	r2, r1
 8000f2c:	611a      	str	r2, [r3, #16]
		TIM16->EGR |= TIM_EGR_UG;	// Reinitialise the counter
 8000f2e:	4b37      	ldr	r3, [pc, #220]	; (800100c <TIM16_IRQHandler+0xf8>)
 8000f30:	695a      	ldr	r2, [r3, #20]
 8000f32:	4b36      	ldr	r3, [pc, #216]	; (800100c <TIM16_IRQHandler+0xf8>)
 8000f34:	2101      	movs	r1, #1
 8000f36:	430a      	orrs	r2, r1
 8000f38:	615a      	str	r2, [r3, #20]

		while((RTC->ICSR & RTC_ICSR_RSF)==0);	// See if the data was updated by the RTC
 8000f3a:	46c0      	nop			; (mov r8, r8)
 8000f3c:	4b34      	ldr	r3, [pc, #208]	; (8001010 <TIM16_IRQHandler+0xfc>)
 8000f3e:	68db      	ldr	r3, [r3, #12]
 8000f40:	2220      	movs	r2, #32
 8000f42:	4013      	ands	r3, r2
 8000f44:	d0fa      	beq.n	8000f3c <TIM16_IRQHandler+0x28>
		hour_t = ((RTC->TR & RTC_TR_HT)>>20);
 8000f46:	4b32      	ldr	r3, [pc, #200]	; (8001010 <TIM16_IRQHandler+0xfc>)
 8000f48:	681b      	ldr	r3, [r3, #0]
 8000f4a:	0d1b      	lsrs	r3, r3, #20
 8000f4c:	b2db      	uxtb	r3, r3
 8000f4e:	2203      	movs	r2, #3
 8000f50:	4013      	ands	r3, r2
 8000f52:	b2da      	uxtb	r2, r3
 8000f54:	4b2f      	ldr	r3, [pc, #188]	; (8001014 <TIM16_IRQHandler+0x100>)
 8000f56:	701a      	strb	r2, [r3, #0]
		hour_u = ((RTC->TR & RTC_TR_HU)>>16);
 8000f58:	4b2d      	ldr	r3, [pc, #180]	; (8001010 <TIM16_IRQHandler+0xfc>)
 8000f5a:	681b      	ldr	r3, [r3, #0]
 8000f5c:	0c1b      	lsrs	r3, r3, #16
 8000f5e:	b2db      	uxtb	r3, r3
 8000f60:	220f      	movs	r2, #15
 8000f62:	4013      	ands	r3, r2
 8000f64:	b2da      	uxtb	r2, r3
 8000f66:	4b2c      	ldr	r3, [pc, #176]	; (8001018 <TIM16_IRQHandler+0x104>)
 8000f68:	701a      	strb	r2, [r3, #0]
		minute_t = ((RTC->TR & RTC_TR_MNT)>>12);
 8000f6a:	4b29      	ldr	r3, [pc, #164]	; (8001010 <TIM16_IRQHandler+0xfc>)
 8000f6c:	681b      	ldr	r3, [r3, #0]
 8000f6e:	0b1b      	lsrs	r3, r3, #12
 8000f70:	b2db      	uxtb	r3, r3
 8000f72:	2207      	movs	r2, #7
 8000f74:	4013      	ands	r3, r2
 8000f76:	b2da      	uxtb	r2, r3
 8000f78:	4b28      	ldr	r3, [pc, #160]	; (800101c <TIM16_IRQHandler+0x108>)
 8000f7a:	701a      	strb	r2, [r3, #0]
		minute_u = ((RTC->TR & RTC_TR_MNU)>>8);
 8000f7c:	4b24      	ldr	r3, [pc, #144]	; (8001010 <TIM16_IRQHandler+0xfc>)
 8000f7e:	681b      	ldr	r3, [r3, #0]
 8000f80:	0a1b      	lsrs	r3, r3, #8
 8000f82:	b2db      	uxtb	r3, r3
 8000f84:	220f      	movs	r2, #15
 8000f86:	4013      	ands	r3, r2
 8000f88:	b2da      	uxtb	r2, r3
 8000f8a:	4b25      	ldr	r3, [pc, #148]	; (8001020 <TIM16_IRQHandler+0x10c>)
 8000f8c:	701a      	strb	r2, [r3, #0]


		year_t = ((RTC->DR & RTC_DR_YT)>>20);
 8000f8e:	4b20      	ldr	r3, [pc, #128]	; (8001010 <TIM16_IRQHandler+0xfc>)
 8000f90:	685b      	ldr	r3, [r3, #4]
 8000f92:	0d1b      	lsrs	r3, r3, #20
 8000f94:	b2db      	uxtb	r3, r3
 8000f96:	220f      	movs	r2, #15
 8000f98:	4013      	ands	r3, r2
 8000f9a:	b2da      	uxtb	r2, r3
 8000f9c:	4b21      	ldr	r3, [pc, #132]	; (8001024 <TIM16_IRQHandler+0x110>)
 8000f9e:	701a      	strb	r2, [r3, #0]
		year_u = ((RTC->DR & RTC_DR_YU)>>16);
 8000fa0:	4b1b      	ldr	r3, [pc, #108]	; (8001010 <TIM16_IRQHandler+0xfc>)
 8000fa2:	685b      	ldr	r3, [r3, #4]
 8000fa4:	0c1b      	lsrs	r3, r3, #16
 8000fa6:	b2db      	uxtb	r3, r3
 8000fa8:	220f      	movs	r2, #15
 8000faa:	4013      	ands	r3, r2
 8000fac:	b2da      	uxtb	r2, r3
 8000fae:	4b1e      	ldr	r3, [pc, #120]	; (8001028 <TIM16_IRQHandler+0x114>)
 8000fb0:	701a      	strb	r2, [r3, #0]
		month_t = ((RTC->DR & RTC_DR_MT)>>12);
 8000fb2:	4b17      	ldr	r3, [pc, #92]	; (8001010 <TIM16_IRQHandler+0xfc>)
 8000fb4:	685b      	ldr	r3, [r3, #4]
 8000fb6:	0b1b      	lsrs	r3, r3, #12
 8000fb8:	b2db      	uxtb	r3, r3
 8000fba:	2201      	movs	r2, #1
 8000fbc:	4013      	ands	r3, r2
 8000fbe:	b2da      	uxtb	r2, r3
 8000fc0:	4b1a      	ldr	r3, [pc, #104]	; (800102c <TIM16_IRQHandler+0x118>)
 8000fc2:	701a      	strb	r2, [r3, #0]
		month_u = ((RTC->DR & RTC_DR_MU)>>8);
 8000fc4:	4b12      	ldr	r3, [pc, #72]	; (8001010 <TIM16_IRQHandler+0xfc>)
 8000fc6:	685b      	ldr	r3, [r3, #4]
 8000fc8:	0a1b      	lsrs	r3, r3, #8
 8000fca:	b2db      	uxtb	r3, r3
 8000fcc:	220f      	movs	r2, #15
 8000fce:	4013      	ands	r3, r2
 8000fd0:	b2da      	uxtb	r2, r3
 8000fd2:	4b17      	ldr	r3, [pc, #92]	; (8001030 <TIM16_IRQHandler+0x11c>)
 8000fd4:	701a      	strb	r2, [r3, #0]
		day_t = ((RTC->DR & RTC_DR_DT)>>4);
 8000fd6:	4b0e      	ldr	r3, [pc, #56]	; (8001010 <TIM16_IRQHandler+0xfc>)
 8000fd8:	685b      	ldr	r3, [r3, #4]
 8000fda:	091b      	lsrs	r3, r3, #4
 8000fdc:	b2db      	uxtb	r3, r3
 8000fde:	2203      	movs	r2, #3
 8000fe0:	4013      	ands	r3, r2
 8000fe2:	b2da      	uxtb	r2, r3
 8000fe4:	4b13      	ldr	r3, [pc, #76]	; (8001034 <TIM16_IRQHandler+0x120>)
 8000fe6:	701a      	strb	r2, [r3, #0]
		day_u = ((RTC->DR & RTC_DR_DU)>>0);
 8000fe8:	4b09      	ldr	r3, [pc, #36]	; (8001010 <TIM16_IRQHandler+0xfc>)
 8000fea:	685b      	ldr	r3, [r3, #4]
 8000fec:	b2db      	uxtb	r3, r3
 8000fee:	220f      	movs	r2, #15
 8000ff0:	4013      	ands	r3, r2
 8000ff2:	b2da      	uxtb	r2, r3
 8000ff4:	4b10      	ldr	r3, [pc, #64]	; (8001038 <TIM16_IRQHandler+0x124>)
 8000ff6:	701a      	strb	r2, [r3, #0]

		RTC->ICSR &= ~RTC_ICSR_RSF;		// Clear the SR update bit
 8000ff8:	4b05      	ldr	r3, [pc, #20]	; (8001010 <TIM16_IRQHandler+0xfc>)
 8000ffa:	68da      	ldr	r2, [r3, #12]
 8000ffc:	4b04      	ldr	r3, [pc, #16]	; (8001010 <TIM16_IRQHandler+0xfc>)
 8000ffe:	2120      	movs	r1, #32
 8001000:	438a      	bics	r2, r1
 8001002:	60da      	str	r2, [r3, #12]


	}
}
 8001004:	46c0      	nop			; (mov r8, r8)
 8001006:	46bd      	mov	sp, r7
 8001008:	bd80      	pop	{r7, pc}
 800100a:	46c0      	nop			; (mov r8, r8)
 800100c:	40014400 	.word	0x40014400
 8001010:	40002800 	.word	0x40002800
 8001014:	2000057c 	.word	0x2000057c
 8001018:	2000005b 	.word	0x2000005b
 800101c:	2000005a 	.word	0x2000005a
 8001020:	20000064 	.word	0x20000064
 8001024:	20000068 	.word	0x20000068
 8001028:	20000059 	.word	0x20000059
 800102c:	2000057d 	.word	0x2000057d
 8001030:	20000069 	.word	0x20000069
 8001034:	20000058 	.word	0x20000058
 8001038:	20000063 	.word	0x20000063

0800103c <__NVIC_EnableIRQ>:
  \details Enables a device specific interrupt in the NVIC interrupt controller.
  \param [in]      IRQn  Device specific interrupt number.
  \note    IRQn must not be negative.
 */
__STATIC_INLINE void __NVIC_EnableIRQ(IRQn_Type IRQn)
{
 800103c:	b580      	push	{r7, lr}
 800103e:	b082      	sub	sp, #8
 8001040:	af00      	add	r7, sp, #0
 8001042:	0002      	movs	r2, r0
 8001044:	1dfb      	adds	r3, r7, #7
 8001046:	701a      	strb	r2, [r3, #0]
  if ((int32_t)(IRQn) >= 0)
 8001048:	1dfb      	adds	r3, r7, #7
 800104a:	781b      	ldrb	r3, [r3, #0]
 800104c:	2b7f      	cmp	r3, #127	; 0x7f
 800104e:	d809      	bhi.n	8001064 <__NVIC_EnableIRQ+0x28>
  {
    NVIC->ISER[0U] = (uint32_t)(1UL << (((uint32_t)IRQn) & 0x1FUL));
 8001050:	1dfb      	adds	r3, r7, #7
 8001052:	781b      	ldrb	r3, [r3, #0]
 8001054:	001a      	movs	r2, r3
 8001056:	231f      	movs	r3, #31
 8001058:	401a      	ands	r2, r3
 800105a:	4b04      	ldr	r3, [pc, #16]	; (800106c <__NVIC_EnableIRQ+0x30>)
 800105c:	2101      	movs	r1, #1
 800105e:	4091      	lsls	r1, r2
 8001060:	000a      	movs	r2, r1
 8001062:	601a      	str	r2, [r3, #0]
  }
}
 8001064:	46c0      	nop			; (mov r8, r8)
 8001066:	46bd      	mov	sp, r7
 8001068:	b002      	add	sp, #8
 800106a:	bd80      	pop	{r7, pc}
 800106c:	e000e100 	.word	0xe000e100

08001070 <SystemCFG>:





void SystemCFG (void)	{
 8001070:	b580      	push	{r7, lr}
 8001072:	b082      	sub	sp, #8
 8001074:	af00      	add	r7, sp, #0

	// *** Configure System Clock (48MHz for each system BUS) ***
	RCC->PLLCFGR &= ~RCC_PLLCFGR_PLLN_4;	// Clear (as it's 1 by default)
 8001076:	4bf6      	ldr	r3, [pc, #984]	; (8001450 <SystemCFG+0x3e0>)
 8001078:	68da      	ldr	r2, [r3, #12]
 800107a:	4bf5      	ldr	r3, [pc, #980]	; (8001450 <SystemCFG+0x3e0>)
 800107c:	49f5      	ldr	r1, [pc, #980]	; (8001454 <SystemCFG+0x3e4>)
 800107e:	400a      	ands	r2, r1
 8001080:	60da      	str	r2, [r3, #12]
	RCC->PLLCFGR |= RCC_PLLCFGR_PLLN_2 | RCC_PLLCFGR_PLLN_3;	// Set PLLN Mult. for 12 (0000 1100)
 8001082:	4bf3      	ldr	r3, [pc, #972]	; (8001450 <SystemCFG+0x3e0>)
 8001084:	68da      	ldr	r2, [r3, #12]
 8001086:	4bf2      	ldr	r3, [pc, #968]	; (8001450 <SystemCFG+0x3e0>)
 8001088:	21c0      	movs	r1, #192	; 0xc0
 800108a:	0109      	lsls	r1, r1, #4
 800108c:	430a      	orrs	r2, r1
 800108e:	60da      	str	r2, [r3, #12]
	RCC->PLLCFGR |= RCC_PLLCFGR_PLLR_0;	// Set PLLR Div. for 2 (001)
 8001090:	4bef      	ldr	r3, [pc, #956]	; (8001450 <SystemCFG+0x3e0>)
 8001092:	68da      	ldr	r2, [r3, #12]
 8001094:	4bee      	ldr	r3, [pc, #952]	; (8001450 <SystemCFG+0x3e0>)
 8001096:	2180      	movs	r1, #128	; 0x80
 8001098:	0589      	lsls	r1, r1, #22
 800109a:	430a      	orrs	r2, r1
 800109c:	60da      	str	r2, [r3, #12]
	RCC->PLLCFGR |= RCC_PLLCFGR_PLLSRC_0 | RCC_PLLCFGR_PLLSRC_1;	// Fpllin = HSE
 800109e:	4bec      	ldr	r3, [pc, #944]	; (8001450 <SystemCFG+0x3e0>)
 80010a0:	68da      	ldr	r2, [r3, #12]
 80010a2:	4beb      	ldr	r3, [pc, #940]	; (8001450 <SystemCFG+0x3e0>)
 80010a4:	2103      	movs	r1, #3
 80010a6:	430a      	orrs	r2, r1
 80010a8:	60da      	str	r2, [r3, #12]
	RCC->PLLCFGR |= RCC_PLLCFGR_PLLREN;	// Enable output of the PLL
 80010aa:	4be9      	ldr	r3, [pc, #932]	; (8001450 <SystemCFG+0x3e0>)
 80010ac:	68da      	ldr	r2, [r3, #12]
 80010ae:	4be8      	ldr	r3, [pc, #928]	; (8001450 <SystemCFG+0x3e0>)
 80010b0:	2180      	movs	r1, #128	; 0x80
 80010b2:	0549      	lsls	r1, r1, #21
 80010b4:	430a      	orrs	r2, r1
 80010b6:	60da      	str	r2, [r3, #12]
	RCC->CFGR |= RCC_CFGR_SW_1;	// PLLRCLK for SYSCLK
 80010b8:	4be5      	ldr	r3, [pc, #916]	; (8001450 <SystemCFG+0x3e0>)
 80010ba:	689a      	ldr	r2, [r3, #8]
 80010bc:	4be4      	ldr	r3, [pc, #912]	; (8001450 <SystemCFG+0x3e0>)
 80010be:	2102      	movs	r1, #2
 80010c0:	430a      	orrs	r2, r1
 80010c2:	609a      	str	r2, [r3, #8]
	RCC->PLLCFGR |= RCC_PLLCFGR_PLLPEN;
 80010c4:	4be2      	ldr	r3, [pc, #904]	; (8001450 <SystemCFG+0x3e0>)
 80010c6:	68da      	ldr	r2, [r3, #12]
 80010c8:	4be1      	ldr	r3, [pc, #900]	; (8001450 <SystemCFG+0x3e0>)
 80010ca:	2180      	movs	r1, #128	; 0x80
 80010cc:	0249      	lsls	r1, r1, #9
 80010ce:	430a      	orrs	r2, r1
 80010d0:	60da      	str	r2, [r3, #12]
	FLASH->ACR |= FLASH_ACR_LATENCY_1;
 80010d2:	4be1      	ldr	r3, [pc, #900]	; (8001458 <SystemCFG+0x3e8>)
 80010d4:	681a      	ldr	r2, [r3, #0]
 80010d6:	4be0      	ldr	r3, [pc, #896]	; (8001458 <SystemCFG+0x3e8>)
 80010d8:	2102      	movs	r1, #2
 80010da:	430a      	orrs	r2, r1
 80010dc:	601a      	str	r2, [r3, #0]
	RCC->CR |= RCC_CR_HSEON;	// HSE ON
 80010de:	4bdc      	ldr	r3, [pc, #880]	; (8001450 <SystemCFG+0x3e0>)
 80010e0:	681a      	ldr	r2, [r3, #0]
 80010e2:	4bdb      	ldr	r3, [pc, #876]	; (8001450 <SystemCFG+0x3e0>)
 80010e4:	2180      	movs	r1, #128	; 0x80
 80010e6:	0249      	lsls	r1, r1, #9
 80010e8:	430a      	orrs	r2, r1
 80010ea:	601a      	str	r2, [r3, #0]
	while (!(RCC->CR & RCC_CR_HSERDY)); // Wait for HSE ON
 80010ec:	46c0      	nop			; (mov r8, r8)
 80010ee:	4bd8      	ldr	r3, [pc, #864]	; (8001450 <SystemCFG+0x3e0>)
 80010f0:	681a      	ldr	r2, [r3, #0]
 80010f2:	2380      	movs	r3, #128	; 0x80
 80010f4:	029b      	lsls	r3, r3, #10
 80010f6:	4013      	ands	r3, r2
 80010f8:	d0f9      	beq.n	80010ee <SystemCFG+0x7e>
	RCC->CR |= RCC_CR_PLLON;	// PLL ON
 80010fa:	4bd5      	ldr	r3, [pc, #852]	; (8001450 <SystemCFG+0x3e0>)
 80010fc:	681a      	ldr	r2, [r3, #0]
 80010fe:	4bd4      	ldr	r3, [pc, #848]	; (8001450 <SystemCFG+0x3e0>)
 8001100:	2180      	movs	r1, #128	; 0x80
 8001102:	0449      	lsls	r1, r1, #17
 8001104:	430a      	orrs	r2, r1
 8001106:	601a      	str	r2, [r3, #0]
	while ((RCC->CR & RCC_CR_PLLRDY)); // Check if PLL not locked
 8001108:	46c0      	nop			; (mov r8, r8)
 800110a:	4bd1      	ldr	r3, [pc, #836]	; (8001450 <SystemCFG+0x3e0>)
 800110c:	681a      	ldr	r2, [r3, #0]
 800110e:	2380      	movs	r3, #128	; 0x80
 8001110:	049b      	lsls	r3, r3, #18
 8001112:	4013      	ands	r3, r2
 8001114:	d1f9      	bne.n	800110a <SystemCFG+0x9a>
	while ((RCC->CFGR & RCC_CFGR_SWS) != RCC_CFGR_SWS_PLL);	// Check for a correct source set
 8001116:	46c0      	nop			; (mov r8, r8)
 8001118:	4bcd      	ldr	r3, [pc, #820]	; (8001450 <SystemCFG+0x3e0>)
 800111a:	689b      	ldr	r3, [r3, #8]
 800111c:	2238      	movs	r2, #56	; 0x38
 800111e:	4013      	ands	r3, r2
 8001120:	2b10      	cmp	r3, #16
 8001122:	d1f9      	bne.n	8001118 <SystemCFG+0xa8>
	RCC->CR &= ~RCC_CR_HSION;	// 16MHz HSI OFF
 8001124:	4bca      	ldr	r3, [pc, #808]	; (8001450 <SystemCFG+0x3e0>)
 8001126:	681a      	ldr	r2, [r3, #0]
 8001128:	4bc9      	ldr	r3, [pc, #804]	; (8001450 <SystemCFG+0x3e0>)
 800112a:	49cc      	ldr	r1, [pc, #816]	; (800145c <SystemCFG+0x3ec>)
 800112c:	400a      	ands	r2, r1
 800112e:	601a      	str	r2, [r3, #0]
	// *********************************


	// *** Configure GPIO: Techled, LED Display, BUZZ, BATTERY CONTROL ***
	RCC->IOPENR |= RCC_IOPENR_GPIOAEN | RCC_IOPENR_GPIOBEN | RCC_IOPENR_GPIOCEN | RCC_IOPENR_GPIODEN | RCC_IOPENR_GPIOFEN;	// GPIO: ABCDF
 8001130:	4bc7      	ldr	r3, [pc, #796]	; (8001450 <SystemCFG+0x3e0>)
 8001132:	6b5a      	ldr	r2, [r3, #52]	; 0x34
 8001134:	4bc6      	ldr	r3, [pc, #792]	; (8001450 <SystemCFG+0x3e0>)
 8001136:	212f      	movs	r1, #47	; 0x2f
 8001138:	430a      	orrs	r2, r1
 800113a:	635a      	str	r2, [r3, #52]	; 0x34

	GPIOB->MODER = GPIO_MODER_MODE0_0 | GPIO_MODER_MODE1_0 | GPIO_MODER_MODE2_0 | GPIO_MODER_MODE3_0 |
 800113c:	4bc8      	ldr	r3, [pc, #800]	; (8001460 <SystemCFG+0x3f0>)
 800113e:	4ac9      	ldr	r2, [pc, #804]	; (8001464 <SystemCFG+0x3f4>)
 8001140:	601a      	str	r2, [r3, #0]
					GPIO_MODER_MODE4_0 | GPIO_MODER_MODE5_0 | GPIO_MODER_MODE6_0 | GPIO_MODER_MODE7_0 |
					GPIO_MODER_MODE8_0 | GPIO_MODER_MODE9_0 | GPIO_MODER_MODE10_0 | GPIO_MODER_MODE11_0 |
					GPIO_MODER_MODE12_0 | GPIO_MODER_MODE13_0 | GPIO_MODER_MODE14_0;	// PB0-PB14: Output

	// LED Cathodes
	GPIOC->ODR |= (GPIO_ODR_OD6 | GPIO_ODR_OD7);
 8001142:	4bc9      	ldr	r3, [pc, #804]	; (8001468 <SystemCFG+0x3f8>)
 8001144:	695a      	ldr	r2, [r3, #20]
 8001146:	4bc8      	ldr	r3, [pc, #800]	; (8001468 <SystemCFG+0x3f8>)
 8001148:	21c0      	movs	r1, #192	; 0xc0
 800114a:	430a      	orrs	r2, r1
 800114c:	615a      	str	r2, [r3, #20]
	GPIOC->MODER &= ~(GPIO_MODER_MODE6_1 | GPIO_MODER_MODE7_1);	// PC6-PC7: Output
 800114e:	4bc6      	ldr	r3, [pc, #792]	; (8001468 <SystemCFG+0x3f8>)
 8001150:	681a      	ldr	r2, [r3, #0]
 8001152:	4bc5      	ldr	r3, [pc, #788]	; (8001468 <SystemCFG+0x3f8>)
 8001154:	49c5      	ldr	r1, [pc, #788]	; (800146c <SystemCFG+0x3fc>)
 8001156:	400a      	ands	r2, r1
 8001158:	601a      	str	r2, [r3, #0]
	GPIOD->ODR |= (GPIO_ODR_OD0 | GPIO_ODR_OD1 | GPIO_ODR_OD2 | GPIO_ODR_OD3);
 800115a:	4bc5      	ldr	r3, [pc, #788]	; (8001470 <SystemCFG+0x400>)
 800115c:	695a      	ldr	r2, [r3, #20]
 800115e:	4bc4      	ldr	r3, [pc, #784]	; (8001470 <SystemCFG+0x400>)
 8001160:	210f      	movs	r1, #15
 8001162:	430a      	orrs	r2, r1
 8001164:	615a      	str	r2, [r3, #20]
	GPIOD->MODER &= ~(GPIO_MODER_MODE0_1 | GPIO_MODER_MODE1_1 | GPIO_MODER_MODE2_1 | GPIO_MODER_MODE3_1);	// PD0-PD3: Output
 8001166:	4bc2      	ldr	r3, [pc, #776]	; (8001470 <SystemCFG+0x400>)
 8001168:	681a      	ldr	r2, [r3, #0]
 800116a:	4bc1      	ldr	r3, [pc, #772]	; (8001470 <SystemCFG+0x400>)
 800116c:	21aa      	movs	r1, #170	; 0xaa
 800116e:	438a      	bics	r2, r1
 8001170:	601a      	str	r2, [r3, #0]
	// Techled, BUZZ
	GPIOA->MODER &= ~(/*GPIO_MODER_MODE1_1 |*/ GPIO_MODER_MODE6_1 | GPIO_MODER_MODE7_1);	// PA6-PA7: Output
 8001172:	23a0      	movs	r3, #160	; 0xa0
 8001174:	05db      	lsls	r3, r3, #23
 8001176:	681a      	ldr	r2, [r3, #0]
 8001178:	23a0      	movs	r3, #160	; 0xa0
 800117a:	05db      	lsls	r3, r3, #23
 800117c:	49bb      	ldr	r1, [pc, #748]	; (800146c <SystemCFG+0x3fc>)
 800117e:	400a      	ands	r2, r1
 8001180:	601a      	str	r2, [r3, #0]
	// *********************************


	// *** Configure DMA ***
//	RCC->AHBENR |= RCC_AHBENR_DMA1EN;
	RCC->APBENR2 |= RCC_APBENR2_SPI1EN;
 8001182:	4bb3      	ldr	r3, [pc, #716]	; (8001450 <SystemCFG+0x3e0>)
 8001184:	6c1a      	ldr	r2, [r3, #64]	; 0x40
 8001186:	4bb2      	ldr	r3, [pc, #712]	; (8001450 <SystemCFG+0x3e0>)
 8001188:	2180      	movs	r1, #128	; 0x80
 800118a:	0149      	lsls	r1, r1, #5
 800118c:	430a      	orrs	r2, r1
 800118e:	641a      	str	r2, [r3, #64]	; 0x40
	// *** Configure DMAMUX ***
	DMAMUX1_Channel1->CCR |= DMAMUX_CxCR_DMAREQ_ID_0 | DMAMUX_CxCR_DMAREQ_ID_4;			// DMA request identification: SPI1_TX (17)
	// *********************************
*/
	// *** Configure TIM14 for delay subroutine ***
	NVIC_EnableIRQ(TIM14_IRQn);
 8001190:	2013      	movs	r0, #19
 8001192:	f7ff ff53 	bl	800103c <__NVIC_EnableIRQ>
	RCC->APBENR2 |= RCC_APBENR2_TIM14EN;	// Enable TIM14 clock
 8001196:	4bae      	ldr	r3, [pc, #696]	; (8001450 <SystemCFG+0x3e0>)
 8001198:	6c1a      	ldr	r2, [r3, #64]	; 0x40
 800119a:	4bad      	ldr	r3, [pc, #692]	; (8001450 <SystemCFG+0x3e0>)
 800119c:	2180      	movs	r1, #128	; 0x80
 800119e:	0209      	lsls	r1, r1, #8
 80011a0:	430a      	orrs	r2, r1
 80011a2:	641a      	str	r2, [r3, #64]	; 0x40
	TIM14->CCMR1 |= TIM_CCMR1_OC2M_0;	// Set channel 1 to active level on match
 80011a4:	4bb3      	ldr	r3, [pc, #716]	; (8001474 <SystemCFG+0x404>)
 80011a6:	699a      	ldr	r2, [r3, #24]
 80011a8:	4bb2      	ldr	r3, [pc, #712]	; (8001474 <SystemCFG+0x404>)
 80011aa:	2180      	movs	r1, #128	; 0x80
 80011ac:	0149      	lsls	r1, r1, #5
 80011ae:	430a      	orrs	r2, r1
 80011b0:	619a      	str	r2, [r3, #24]
	TIM14->DIER |= TIM_DIER_CC1IE;
 80011b2:	4bb0      	ldr	r3, [pc, #704]	; (8001474 <SystemCFG+0x404>)
 80011b4:	68da      	ldr	r2, [r3, #12]
 80011b6:	4baf      	ldr	r3, [pc, #700]	; (8001474 <SystemCFG+0x404>)
 80011b8:	2102      	movs	r1, #2
 80011ba:	430a      	orrs	r2, r1
 80011bc:	60da      	str	r2, [r3, #12]
	TIM14->PSC = 47999;	/// 1000 Hz	(psc = 47999), F_CPU = 48MHz
 80011be:	4bad      	ldr	r3, [pc, #692]	; (8001474 <SystemCFG+0x404>)
 80011c0:	4aad      	ldr	r2, [pc, #692]	; (8001478 <SystemCFG+0x408>)
 80011c2:	629a      	str	r2, [r3, #40]	; 0x28
	// *********************************


	// *** Configure TIM15 for Segment Multiplexing ***
	NVIC_EnableIRQ(TIM15_IRQn);
 80011c4:	2014      	movs	r0, #20
 80011c6:	f7ff ff39 	bl	800103c <__NVIC_EnableIRQ>
	RCC->APBENR2 |= RCC_APBENR2_TIM15EN;	// Enable TIM15 clock
 80011ca:	4ba1      	ldr	r3, [pc, #644]	; (8001450 <SystemCFG+0x3e0>)
 80011cc:	6c1a      	ldr	r2, [r3, #64]	; 0x40
 80011ce:	4ba0      	ldr	r3, [pc, #640]	; (8001450 <SystemCFG+0x3e0>)
 80011d0:	2180      	movs	r1, #128	; 0x80
 80011d2:	0249      	lsls	r1, r1, #9
 80011d4:	430a      	orrs	r2, r1
 80011d6:	641a      	str	r2, [r3, #64]	; 0x40
	TIM15->CCMR1 |= TIM_CCMR1_OC2M_0;	// Set channel 1 to active level on match
 80011d8:	4ba8      	ldr	r3, [pc, #672]	; (800147c <SystemCFG+0x40c>)
 80011da:	699a      	ldr	r2, [r3, #24]
 80011dc:	4ba7      	ldr	r3, [pc, #668]	; (800147c <SystemCFG+0x40c>)
 80011de:	2180      	movs	r1, #128	; 0x80
 80011e0:	0149      	lsls	r1, r1, #5
 80011e2:	430a      	orrs	r2, r1
 80011e4:	619a      	str	r2, [r3, #24]
	TIM15->DIER |= TIM_DIER_CC1IE;
 80011e6:	4ba5      	ldr	r3, [pc, #660]	; (800147c <SystemCFG+0x40c>)
 80011e8:	68da      	ldr	r2, [r3, #12]
 80011ea:	4ba4      	ldr	r3, [pc, #656]	; (800147c <SystemCFG+0x40c>)
 80011ec:	2102      	movs	r1, #2
 80011ee:	430a      	orrs	r2, r1
 80011f0:	60da      	str	r2, [r3, #12]
	TIM15->PSC = 1;	/// 1000 Hz	(psc = 47999), F_CPU = 48MHz
 80011f2:	4ba2      	ldr	r3, [pc, #648]	; (800147c <SystemCFG+0x40c>)
 80011f4:	2201      	movs	r2, #1
 80011f6:	629a      	str	r2, [r3, #40]	; 0x28
	TIM15->CR1 |= TIM_CR1_CEN;	// Counter enable
 80011f8:	4ba0      	ldr	r3, [pc, #640]	; (800147c <SystemCFG+0x40c>)
 80011fa:	681a      	ldr	r2, [r3, #0]
 80011fc:	4b9f      	ldr	r3, [pc, #636]	; (800147c <SystemCFG+0x40c>)
 80011fe:	2101      	movs	r1, #1
 8001200:	430a      	orrs	r2, r1
 8001202:	601a      	str	r2, [r3, #0]
	// *********************************


	// *** Configure RTC Clock ***
	RCC->APBENR1 |= RCC_APBENR1_RTCAPBEN | RCC_APBENR1_PWREN;
 8001204:	4b92      	ldr	r3, [pc, #584]	; (8001450 <SystemCFG+0x3e0>)
 8001206:	6bda      	ldr	r2, [r3, #60]	; 0x3c
 8001208:	4b91      	ldr	r3, [pc, #580]	; (8001450 <SystemCFG+0x3e0>)
 800120a:	499d      	ldr	r1, [pc, #628]	; (8001480 <SystemCFG+0x410>)
 800120c:	430a      	orrs	r2, r1
 800120e:	63da      	str	r2, [r3, #60]	; 0x3c
	PWR->CR1 |= PWR_CR1_DBP;	// Disable RTC write protection
 8001210:	4b9c      	ldr	r3, [pc, #624]	; (8001484 <SystemCFG+0x414>)
 8001212:	681a      	ldr	r2, [r3, #0]
 8001214:	4b9b      	ldr	r3, [pc, #620]	; (8001484 <SystemCFG+0x414>)
 8001216:	2180      	movs	r1, #128	; 0x80
 8001218:	0049      	lsls	r1, r1, #1
 800121a:	430a      	orrs	r2, r1
 800121c:	601a      	str	r2, [r3, #0]
	RCC->BDCR |= RCC_BDCR_LSEON;	// LSE eabled
 800121e:	4b8c      	ldr	r3, [pc, #560]	; (8001450 <SystemCFG+0x3e0>)
 8001220:	6dda      	ldr	r2, [r3, #92]	; 0x5c
 8001222:	4b8b      	ldr	r3, [pc, #556]	; (8001450 <SystemCFG+0x3e0>)
 8001224:	2101      	movs	r1, #1
 8001226:	430a      	orrs	r2, r1
 8001228:	65da      	str	r2, [r3, #92]	; 0x5c
	while(!(RCC->BDCR & RCC_BDCR_LSERDY));	// Wait for LSE ready
 800122a:	46c0      	nop			; (mov r8, r8)
 800122c:	4b88      	ldr	r3, [pc, #544]	; (8001450 <SystemCFG+0x3e0>)
 800122e:	6ddb      	ldr	r3, [r3, #92]	; 0x5c
 8001230:	2202      	movs	r2, #2
 8001232:	4013      	ands	r3, r2
 8001234:	d0fa      	beq.n	800122c <SystemCFG+0x1bc>
	RCC->BDCR |= RCC_BDCR_RTCSEL_0 | RCC_BDCR_RTCEN;	// LSE for the RTC, RTC enable
 8001236:	4b86      	ldr	r3, [pc, #536]	; (8001450 <SystemCFG+0x3e0>)
 8001238:	6dda      	ldr	r2, [r3, #92]	; 0x5c
 800123a:	4b85      	ldr	r3, [pc, #532]	; (8001450 <SystemCFG+0x3e0>)
 800123c:	2181      	movs	r1, #129	; 0x81
 800123e:	0209      	lsls	r1, r1, #8
 8001240:	430a      	orrs	r2, r1
 8001242:	65da      	str	r2, [r3, #92]	; 0x5c


	// RTC CALIBRATION PROCESS
	// Update RTC_PRER register
	uint32_t tmp_prer = RTC->PRER;
 8001244:	4b90      	ldr	r3, [pc, #576]	; (8001488 <SystemCFG+0x418>)
 8001246:	691b      	ldr	r3, [r3, #16]
 8001248:	607b      	str	r3, [r7, #4]
	tmp_prer &= ~(0x7f7fff);		// Set zeros to the tmp_pres Prediv_A and Prediv_S register
 800124a:	687b      	ldr	r3, [r7, #4]
 800124c:	4a8f      	ldr	r2, [pc, #572]	; (800148c <SystemCFG+0x41c>)
 800124e:	4013      	ands	r3, r2
 8001250:	607b      	str	r3, [r7, #4]
	tmp_prer |= (PREDIV_A<<16);		// SET PREDIV_A [val: 0-127]
 8001252:	687b      	ldr	r3, [r7, #4]
 8001254:	22fe      	movs	r2, #254	; 0xfe
 8001256:	03d2      	lsls	r2, r2, #15
 8001258:	4313      	orrs	r3, r2
 800125a:	607b      	str	r3, [r7, #4]
	tmp_prer |= PREDIV_S;		// SET PREDIV_S [val: 0-32767]
 800125c:	687b      	ldr	r3, [r7, #4]
 800125e:	22fb      	movs	r2, #251	; 0xfb
 8001260:	4313      	orrs	r3, r2
 8001262:	607b      	str	r3, [r7, #4]
	RTC->WPR = 0xca;
 8001264:	4b88      	ldr	r3, [pc, #544]	; (8001488 <SystemCFG+0x418>)
 8001266:	22ca      	movs	r2, #202	; 0xca
 8001268:	625a      	str	r2, [r3, #36]	; 0x24
	RTC->WPR = 0x53;	// Write protection disabled
 800126a:	4b87      	ldr	r3, [pc, #540]	; (8001488 <SystemCFG+0x418>)
 800126c:	2253      	movs	r2, #83	; 0x53
 800126e:	625a      	str	r2, [r3, #36]	; 0x24
	// Enter clock init mode
	RTC->ICSR |= RTC_ICSR_INIT;
 8001270:	4b85      	ldr	r3, [pc, #532]	; (8001488 <SystemCFG+0x418>)
 8001272:	68da      	ldr	r2, [r3, #12]
 8001274:	4b84      	ldr	r3, [pc, #528]	; (8001488 <SystemCFG+0x418>)
 8001276:	2180      	movs	r1, #128	; 0x80
 8001278:	430a      	orrs	r2, r1
 800127a:	60da      	str	r2, [r3, #12]
	while ((RTC->ICSR & RTC_ICSR_INITF) == 0);	// Wait until ready to update
 800127c:	46c0      	nop			; (mov r8, r8)
 800127e:	4b82      	ldr	r3, [pc, #520]	; (8001488 <SystemCFG+0x418>)
 8001280:	68db      	ldr	r3, [r3, #12]
 8001282:	2240      	movs	r2, #64	; 0x40
 8001284:	4013      	ands	r3, r2
 8001286:	d0fa      	beq.n	800127e <SystemCFG+0x20e>
	RTC->PRER = tmp_prer;		// Update PRER register
 8001288:	4b7f      	ldr	r3, [pc, #508]	; (8001488 <SystemCFG+0x418>)
 800128a:	687a      	ldr	r2, [r7, #4]
 800128c:	611a      	str	r2, [r3, #16]
	RTC->ICSR &= ~RTC_ICSR_INIT;	// Disable RTC init mode
 800128e:	4b7e      	ldr	r3, [pc, #504]	; (8001488 <SystemCFG+0x418>)
 8001290:	68da      	ldr	r2, [r3, #12]
 8001292:	4b7d      	ldr	r3, [pc, #500]	; (8001488 <SystemCFG+0x418>)
 8001294:	2180      	movs	r1, #128	; 0x80
 8001296:	438a      	bics	r2, r1
 8001298:	60da      	str	r2, [r3, #12]

	// Update RTC_CALR register
	uint32_t tmp_calr = RTC->CALR;
 800129a:	4b7b      	ldr	r3, [pc, #492]	; (8001488 <SystemCFG+0x418>)
 800129c:	6a9b      	ldr	r3, [r3, #40]	; 0x28
 800129e:	603b      	str	r3, [r7, #0]
	tmp_calr &= ~(0x81ff);	// CALP and CALM mask (setting to zero)
 80012a0:	683b      	ldr	r3, [r7, #0]
 80012a2:	4a7b      	ldr	r2, [pc, #492]	; (8001490 <SystemCFG+0x420>)
 80012a4:	4013      	ands	r3, r2
 80012a6:	603b      	str	r3, [r7, #0]
	tmp_calr |= (CALP<<15);	// SET CALP [val: 0-1]
	tmp_calr |= (CALM);		// SET CALM [val: 0-511]
 80012a8:	683b      	ldr	r3, [r7, #0]
 80012aa:	4a7a      	ldr	r2, [pc, #488]	; (8001494 <SystemCFG+0x424>)
 80012ac:	4313      	orrs	r3, r2
 80012ae:	603b      	str	r3, [r7, #0]
	RTC->WPR = 0xca;
 80012b0:	4b75      	ldr	r3, [pc, #468]	; (8001488 <SystemCFG+0x418>)
 80012b2:	22ca      	movs	r2, #202	; 0xca
 80012b4:	625a      	str	r2, [r3, #36]	; 0x24
	RTC->WPR = 0x53;	// Write protection disabled
 80012b6:	4b74      	ldr	r3, [pc, #464]	; (8001488 <SystemCFG+0x418>)
 80012b8:	2253      	movs	r2, #83	; 0x53
 80012ba:	625a      	str	r2, [r3, #36]	; 0x24
	RTC->CALR = tmp_calr;	// Update CALR resgister
 80012bc:	4b72      	ldr	r3, [pc, #456]	; (8001488 <SystemCFG+0x418>)
 80012be:	683a      	ldr	r2, [r7, #0]
 80012c0:	629a      	str	r2, [r3, #40]	; 0x28
	RTC->CR |= RTC_CR_COSEL;	// F_calibration = 1Hz
	GPIOA->MODER &= ~GPIO_MODER_MODE4_1;
	RTC->CR |= RTC_CR_OUT2EN;	// RTC clock available on PA4 - RTC_OUT2
	#endif
	#if (!RTC_OSC_CALIB_OUTPUT_EN)
	RTC->CR &= ~RTC_CR_COE;	// Calibration output disbled
 80012c2:	4b71      	ldr	r3, [pc, #452]	; (8001488 <SystemCFG+0x418>)
 80012c4:	699a      	ldr	r2, [r3, #24]
 80012c6:	4b70      	ldr	r3, [pc, #448]	; (8001488 <SystemCFG+0x418>)
 80012c8:	4973      	ldr	r1, [pc, #460]	; (8001498 <SystemCFG+0x428>)
 80012ca:	400a      	ands	r2, r1
 80012cc:	619a      	str	r2, [r3, #24]
	RTC->CR &= ~RTC_CR_COSEL;	// F_calibration 1Hz disabled
 80012ce:	4b6e      	ldr	r3, [pc, #440]	; (8001488 <SystemCFG+0x418>)
 80012d0:	699a      	ldr	r2, [r3, #24]
 80012d2:	4b6d      	ldr	r3, [pc, #436]	; (8001488 <SystemCFG+0x418>)
 80012d4:	4971      	ldr	r1, [pc, #452]	; (800149c <SystemCFG+0x42c>)
 80012d6:	400a      	ands	r2, r1
 80012d8:	619a      	str	r2, [r3, #24]
	GPIOA->MODER |= GPIO_MODER_MODE4_1;
 80012da:	23a0      	movs	r3, #160	; 0xa0
 80012dc:	05db      	lsls	r3, r3, #23
 80012de:	681a      	ldr	r2, [r3, #0]
 80012e0:	23a0      	movs	r3, #160	; 0xa0
 80012e2:	05db      	lsls	r3, r3, #23
 80012e4:	2180      	movs	r1, #128	; 0x80
 80012e6:	0089      	lsls	r1, r1, #2
 80012e8:	430a      	orrs	r2, r1
 80012ea:	601a      	str	r2, [r3, #0]
	RTC->CR &= ~RTC_CR_OUT2EN;	// RTC clock disabled on PA4 - RTC_OUT2
 80012ec:	4b66      	ldr	r3, [pc, #408]	; (8001488 <SystemCFG+0x418>)
 80012ee:	699a      	ldr	r2, [r3, #24]
 80012f0:	4b65      	ldr	r3, [pc, #404]	; (8001488 <SystemCFG+0x418>)
 80012f2:	0052      	lsls	r2, r2, #1
 80012f4:	0852      	lsrs	r2, r2, #1
 80012f6:	619a      	str	r2, [r3, #24]
	// END OF RTC CALIBRATION PROCESS
	// *********************************


	// *** Configure TIM16 for RTC clock data update ***
	NVIC_EnableIRQ(TIM16_IRQn);
 80012f8:	2015      	movs	r0, #21
 80012fa:	f7ff fe9f 	bl	800103c <__NVIC_EnableIRQ>
	RCC->APBENR2 |= RCC_APBENR2_TIM16EN;	// Enable TIM16 clock
 80012fe:	4b54      	ldr	r3, [pc, #336]	; (8001450 <SystemCFG+0x3e0>)
 8001300:	6c1a      	ldr	r2, [r3, #64]	; 0x40
 8001302:	4b53      	ldr	r3, [pc, #332]	; (8001450 <SystemCFG+0x3e0>)
 8001304:	2180      	movs	r1, #128	; 0x80
 8001306:	0289      	lsls	r1, r1, #10
 8001308:	430a      	orrs	r2, r1
 800130a:	641a      	str	r2, [r3, #64]	; 0x40
	TIM16->PSC = 47999;
 800130c:	4b64      	ldr	r3, [pc, #400]	; (80014a0 <SystemCFG+0x430>)
 800130e:	4a5a      	ldr	r2, [pc, #360]	; (8001478 <SystemCFG+0x408>)
 8001310:	629a      	str	r2, [r3, #40]	; 0x28
	TIM16->CCR1 = 250;
 8001312:	4b63      	ldr	r3, [pc, #396]	; (80014a0 <SystemCFG+0x430>)
 8001314:	22fa      	movs	r2, #250	; 0xfa
 8001316:	635a      	str	r2, [r3, #52]	; 0x34
	TIM16->DIER |= TIM_DIER_CC1IE;	// CaptureCompare1 Interrupt Enable	(2Hz)
 8001318:	4b61      	ldr	r3, [pc, #388]	; (80014a0 <SystemCFG+0x430>)
 800131a:	68da      	ldr	r2, [r3, #12]
 800131c:	4b60      	ldr	r3, [pc, #384]	; (80014a0 <SystemCFG+0x430>)
 800131e:	2102      	movs	r1, #2
 8001320:	430a      	orrs	r2, r1
 8001322:	60da      	str	r2, [r3, #12]
	TIM16->CR1 |= TIM_CR1_CEN;	// Counter enable
 8001324:	4b5e      	ldr	r3, [pc, #376]	; (80014a0 <SystemCFG+0x430>)
 8001326:	681a      	ldr	r2, [r3, #0]
 8001328:	4b5d      	ldr	r3, [pc, #372]	; (80014a0 <SystemCFG+0x430>)
 800132a:	2101      	movs	r1, #1
 800132c:	430a      	orrs	r2, r1
 800132e:	601a      	str	r2, [r3, #0]
	// *********************************


	// *** Configure SPI ***
	NVIC_EnableIRQ(SPI1_IRQn);
 8001330:	2019      	movs	r0, #25
 8001332:	f7ff fe83 	bl	800103c <__NVIC_EnableIRQ>
	GPIOA->MODER &= ~GPIO_MODER_MODE2_0;	// MODER: 10 - Alternative function
 8001336:	23a0      	movs	r3, #160	; 0xa0
 8001338:	05db      	lsls	r3, r3, #23
 800133a:	681a      	ldr	r2, [r3, #0]
 800133c:	23a0      	movs	r3, #160	; 0xa0
 800133e:	05db      	lsls	r3, r3, #23
 8001340:	2110      	movs	r1, #16
 8001342:	438a      	bics	r2, r1
 8001344:	601a      	str	r2, [r3, #0]
	// GPIOA->AFR[0] 	// AFDEL set to 0000 automatically (SPI1_MOSI)
	SPI1->CR1 |= SPI_CR1_BR_1;	// SPI psc (010) : (8), 48/8 = 6Mhz set
 8001346:	4b57      	ldr	r3, [pc, #348]	; (80014a4 <SystemCFG+0x434>)
 8001348:	681a      	ldr	r2, [r3, #0]
 800134a:	4b56      	ldr	r3, [pc, #344]	; (80014a4 <SystemCFG+0x434>)
 800134c:	2110      	movs	r1, #16
 800134e:	430a      	orrs	r2, r1
 8001350:	601a      	str	r2, [r3, #0]
	SPI1->CR1 |= (SPI_CR1_MSTR | SPI_CR1_SSM | SPI_CR1_SSI);	// Set as Master (also, enable software slave management)
 8001352:	4b54      	ldr	r3, [pc, #336]	; (80014a4 <SystemCFG+0x434>)
 8001354:	681a      	ldr	r2, [r3, #0]
 8001356:	4b53      	ldr	r3, [pc, #332]	; (80014a4 <SystemCFG+0x434>)
 8001358:	21c1      	movs	r1, #193	; 0xc1
 800135a:	0089      	lsls	r1, r1, #2
 800135c:	430a      	orrs	r2, r1
 800135e:	601a      	str	r2, [r3, #0]
	SPI1->CR1 |= SPI_CR1_CPHA;	// The second clock transition is the first data capture edge (as a result, first LED will always be active)
 8001360:	4b50      	ldr	r3, [pc, #320]	; (80014a4 <SystemCFG+0x434>)
 8001362:	681a      	ldr	r2, [r3, #0]
 8001364:	4b4f      	ldr	r3, [pc, #316]	; (80014a4 <SystemCFG+0x434>)
 8001366:	2101      	movs	r1, #1
 8001368:	430a      	orrs	r2, r1
 800136a:	601a      	str	r2, [r3, #0]
	// 8-bit data length set initially by the hardware
	SPI1->CR1 |= SPI_CR1_SPE;	// SPI enable
 800136c:	4b4d      	ldr	r3, [pc, #308]	; (80014a4 <SystemCFG+0x434>)
 800136e:	681a      	ldr	r2, [r3, #0]
 8001370:	4b4c      	ldr	r3, [pc, #304]	; (80014a4 <SystemCFG+0x434>)
 8001372:	2140      	movs	r1, #64	; 0x40
 8001374:	430a      	orrs	r2, r1
 8001376:	601a      	str	r2, [r3, #0]
	// *********************************


	// *** Configure ADC ***
	NVIC_EnableIRQ(ADC1_COMP_IRQn);
 8001378:	200c      	movs	r0, #12
 800137a:	f7ff fe5f 	bl	800103c <__NVIC_EnableIRQ>
	RCC->APBENR2 |= RCC_APBENR2_ADCEN;
 800137e:	4b34      	ldr	r3, [pc, #208]	; (8001450 <SystemCFG+0x3e0>)
 8001380:	6c1a      	ldr	r2, [r3, #64]	; 0x40
 8001382:	4b33      	ldr	r3, [pc, #204]	; (8001450 <SystemCFG+0x3e0>)
 8001384:	2180      	movs	r1, #128	; 0x80
 8001386:	0349      	lsls	r1, r1, #13
 8001388:	430a      	orrs	r2, r1
 800138a:	641a      	str	r2, [r3, #64]	; 0x40
	ADC1->IER |= ADC_IER_EOCIE;		// End of conversion interrupt enable
 800138c:	4b46      	ldr	r3, [pc, #280]	; (80014a8 <SystemCFG+0x438>)
 800138e:	685a      	ldr	r2, [r3, #4]
 8001390:	4b45      	ldr	r3, [pc, #276]	; (80014a8 <SystemCFG+0x438>)
 8001392:	2104      	movs	r1, #4
 8001394:	430a      	orrs	r2, r1
 8001396:	605a      	str	r2, [r3, #4]
	ADC1->CR |= ADC_CR_ADVREGEN;	// ADC voltage regulator enable
 8001398:	4b43      	ldr	r3, [pc, #268]	; (80014a8 <SystemCFG+0x438>)
 800139a:	689a      	ldr	r2, [r3, #8]
 800139c:	4b42      	ldr	r3, [pc, #264]	; (80014a8 <SystemCFG+0x438>)
 800139e:	2180      	movs	r1, #128	; 0x80
 80013a0:	0549      	lsls	r1, r1, #21
 80013a2:	430a      	orrs	r2, r1
 80013a4:	609a      	str	r2, [r3, #8]
	ADC1->CFGR1 |= ADC_CFGR1_DISCEN;	// ADC discontinuous mode enabled
 80013a6:	4b40      	ldr	r3, [pc, #256]	; (80014a8 <SystemCFG+0x438>)
 80013a8:	68da      	ldr	r2, [r3, #12]
 80013aa:	4b3f      	ldr	r3, [pc, #252]	; (80014a8 <SystemCFG+0x438>)
 80013ac:	2180      	movs	r1, #128	; 0x80
 80013ae:	0249      	lsls	r1, r1, #9
 80013b0:	430a      	orrs	r2, r1
 80013b2:	60da      	str	r2, [r3, #12]
	ADC1->CFGR1 |= ADC_CFGR1_OVRMOD;	// Overwire with the last conversion result
 80013b4:	4b3c      	ldr	r3, [pc, #240]	; (80014a8 <SystemCFG+0x438>)
 80013b6:	68da      	ldr	r2, [r3, #12]
 80013b8:	4b3b      	ldr	r3, [pc, #236]	; (80014a8 <SystemCFG+0x438>)
 80013ba:	2180      	movs	r1, #128	; 0x80
 80013bc:	0149      	lsls	r1, r1, #5
 80013be:	430a      	orrs	r2, r1
 80013c0:	60da      	str	r2, [r3, #12]
	ADC1->CHSELR |= ADC_CHSELR_CHSEL5;	// Channel 5 selected for conversion
 80013c2:	4b39      	ldr	r3, [pc, #228]	; (80014a8 <SystemCFG+0x438>)
 80013c4:	6a9a      	ldr	r2, [r3, #40]	; 0x28
 80013c6:	4b38      	ldr	r3, [pc, #224]	; (80014a8 <SystemCFG+0x438>)
 80013c8:	2120      	movs	r1, #32
 80013ca:	430a      	orrs	r2, r1
 80013cc:	629a      	str	r2, [r3, #40]	; 0x28

	ADC1->CR |= ADC_CR_ADEN;	// Start ADC
 80013ce:	4b36      	ldr	r3, [pc, #216]	; (80014a8 <SystemCFG+0x438>)
 80013d0:	689a      	ldr	r2, [r3, #8]
 80013d2:	4b35      	ldr	r3, [pc, #212]	; (80014a8 <SystemCFG+0x438>)
 80013d4:	2101      	movs	r1, #1
 80013d6:	430a      	orrs	r2, r1
 80013d8:	609a      	str	r2, [r3, #8]
	while((ADC1->ISR & ADC_ISR_ADRDY) == 0);
 80013da:	46c0      	nop			; (mov r8, r8)
 80013dc:	4b32      	ldr	r3, [pc, #200]	; (80014a8 <SystemCFG+0x438>)
 80013de:	681b      	ldr	r3, [r3, #0]
 80013e0:	2201      	movs	r2, #1
 80013e2:	4013      	ands	r3, r2
 80013e4:	d0fa      	beq.n	80013dc <SystemCFG+0x36c>
	ADC1->ISR |= ADC_ISR_ADRDY;		// Clear flag
 80013e6:	4b30      	ldr	r3, [pc, #192]	; (80014a8 <SystemCFG+0x438>)
 80013e8:	681a      	ldr	r2, [r3, #0]
 80013ea:	4b2f      	ldr	r3, [pc, #188]	; (80014a8 <SystemCFG+0x438>)
 80013ec:	2101      	movs	r1, #1
 80013ee:	430a      	orrs	r2, r1
 80013f0:	601a      	str	r2, [r3, #0]
	// *********************************

	// *** Configure USART1 ***
	GPIOA->MODER &= ~(GPIO_MODER_MODE9_1 | GPIO_MODER_MODE10_1);	// GPIO Output mode
 80013f2:	23a0      	movs	r3, #160	; 0xa0
 80013f4:	05db      	lsls	r3, r3, #23
 80013f6:	681a      	ldr	r2, [r3, #0]
 80013f8:	23a0      	movs	r3, #160	; 0xa0
 80013fa:	05db      	lsls	r3, r3, #23
 80013fc:	492b      	ldr	r1, [pc, #172]	; (80014ac <SystemCFG+0x43c>)
 80013fe:	400a      	ands	r2, r1
 8001400:	601a      	str	r2, [r3, #0]
	// *********************************

	// *** Configure EXTI (switches) ***
	// SW2 (SET) - PA11 | SW3 (DOWN) - PA12 | SW4 (UP) - PB15
	GPIOA->MODER &= ~(GPIO_MODER_MODE11_0 | GPIO_MODER_MODE11_1);
 8001402:	23a0      	movs	r3, #160	; 0xa0
 8001404:	05db      	lsls	r3, r3, #23
 8001406:	681a      	ldr	r2, [r3, #0]
 8001408:	23a0      	movs	r3, #160	; 0xa0
 800140a:	05db      	lsls	r3, r3, #23
 800140c:	4928      	ldr	r1, [pc, #160]	; (80014b0 <SystemCFG+0x440>)
 800140e:	400a      	ands	r2, r1
 8001410:	601a      	str	r2, [r3, #0]
	GPIOA->MODER &= ~(GPIO_MODER_MODE12_0 | GPIO_MODER_MODE12_1);
 8001412:	23a0      	movs	r3, #160	; 0xa0
 8001414:	05db      	lsls	r3, r3, #23
 8001416:	681a      	ldr	r2, [r3, #0]
 8001418:	23a0      	movs	r3, #160	; 0xa0
 800141a:	05db      	lsls	r3, r3, #23
 800141c:	4925      	ldr	r1, [pc, #148]	; (80014b4 <SystemCFG+0x444>)
 800141e:	400a      	ands	r2, r1
 8001420:	601a      	str	r2, [r3, #0]
	GPIOB->MODER &= ~(GPIO_MODER_MODE15_0 | GPIO_MODER_MODE15_1);
 8001422:	4b0f      	ldr	r3, [pc, #60]	; (8001460 <SystemCFG+0x3f0>)
 8001424:	681a      	ldr	r2, [r3, #0]
 8001426:	4b0e      	ldr	r3, [pc, #56]	; (8001460 <SystemCFG+0x3f0>)
 8001428:	0092      	lsls	r2, r2, #2
 800142a:	0892      	lsrs	r2, r2, #2
 800142c:	601a      	str	r2, [r3, #0]
	GPIOA->PUPDR |= GPIO_PUPDR_PUPD11_0;
 800142e:	23a0      	movs	r3, #160	; 0xa0
 8001430:	05db      	lsls	r3, r3, #23
 8001432:	68da      	ldr	r2, [r3, #12]
 8001434:	23a0      	movs	r3, #160	; 0xa0
 8001436:	05db      	lsls	r3, r3, #23
 8001438:	2180      	movs	r1, #128	; 0x80
 800143a:	03c9      	lsls	r1, r1, #15
 800143c:	430a      	orrs	r2, r1
 800143e:	60da      	str	r2, [r3, #12]
	GPIOA->PUPDR |= GPIO_PUPDR_PUPD12_0;
 8001440:	23a0      	movs	r3, #160	; 0xa0
 8001442:	05db      	lsls	r3, r3, #23
 8001444:	68da      	ldr	r2, [r3, #12]
 8001446:	23a0      	movs	r3, #160	; 0xa0
 8001448:	05db      	lsls	r3, r3, #23
 800144a:	2180      	movs	r1, #128	; 0x80
 800144c:	e034      	b.n	80014b8 <SystemCFG+0x448>
 800144e:	46c0      	nop			; (mov r8, r8)
 8001450:	40021000 	.word	0x40021000
 8001454:	ffffefff 	.word	0xffffefff
 8001458:	40022000 	.word	0x40022000
 800145c:	fffffeff 	.word	0xfffffeff
 8001460:	50000400 	.word	0x50000400
 8001464:	15555555 	.word	0x15555555
 8001468:	50000800 	.word	0x50000800
 800146c:	ffff5fff 	.word	0xffff5fff
 8001470:	50000c00 	.word	0x50000c00
 8001474:	40002000 	.word	0x40002000
 8001478:	0000bb7f 	.word	0x0000bb7f
 800147c:	40014000 	.word	0x40014000
 8001480:	10000400 	.word	0x10000400
 8001484:	40007000 	.word	0x40007000
 8001488:	40002800 	.word	0x40002800
 800148c:	ff808000 	.word	0xff808000
 8001490:	ffff7e00 	.word	0xffff7e00
 8001494:	000001ff 	.word	0x000001ff
 8001498:	ff7fffff 	.word	0xff7fffff
 800149c:	fff7ffff 	.word	0xfff7ffff
 80014a0:	40014400 	.word	0x40014400
 80014a4:	40013000 	.word	0x40013000
 80014a8:	40012400 	.word	0x40012400
 80014ac:	ffd7ffff 	.word	0xffd7ffff
 80014b0:	ff3fffff 	.word	0xff3fffff
 80014b4:	fcffffff 	.word	0xfcffffff
 80014b8:	0449      	lsls	r1, r1, #17
 80014ba:	430a      	orrs	r2, r1
 80014bc:	60da      	str	r2, [r3, #12]
	GPIOB->PUPDR |= GPIO_PUPDR_PUPD15_0;
 80014be:	4b16      	ldr	r3, [pc, #88]	; (8001518 <SystemCFG+0x4a8>)
 80014c0:	68da      	ldr	r2, [r3, #12]
 80014c2:	4b15      	ldr	r3, [pc, #84]	; (8001518 <SystemCFG+0x4a8>)
 80014c4:	2180      	movs	r1, #128	; 0x80
 80014c6:	05c9      	lsls	r1, r1, #23
 80014c8:	430a      	orrs	r2, r1
 80014ca:	60da      	str	r2, [r3, #12]

	NVIC_EnableIRQ(EXTI4_15_IRQn);
 80014cc:	2007      	movs	r0, #7
 80014ce:	f7ff fdb5 	bl	800103c <__NVIC_EnableIRQ>
	EXTI->EXTICR[2] |= ((0x00)<<24);	// Set PA11
 80014d2:	4a12      	ldr	r2, [pc, #72]	; (800151c <SystemCFG+0x4ac>)
 80014d4:	4b11      	ldr	r3, [pc, #68]	; (800151c <SystemCFG+0x4ac>)
 80014d6:	6e92      	ldr	r2, [r2, #104]	; 0x68
 80014d8:	669a      	str	r2, [r3, #104]	; 0x68
	EXTI->EXTICR[3] |= ((0x00)<<0);		// Set PA12
 80014da:	4a10      	ldr	r2, [pc, #64]	; (800151c <SystemCFG+0x4ac>)
 80014dc:	4b0f      	ldr	r3, [pc, #60]	; (800151c <SystemCFG+0x4ac>)
 80014de:	6ed2      	ldr	r2, [r2, #108]	; 0x6c
 80014e0:	66da      	str	r2, [r3, #108]	; 0x6c
	EXTI->EXTICR[3] |= ((0x01)<<24);	// Set PB15
 80014e2:	4b0e      	ldr	r3, [pc, #56]	; (800151c <SystemCFG+0x4ac>)
 80014e4:	6eda      	ldr	r2, [r3, #108]	; 0x6c
 80014e6:	4b0d      	ldr	r3, [pc, #52]	; (800151c <SystemCFG+0x4ac>)
 80014e8:	2180      	movs	r1, #128	; 0x80
 80014ea:	0449      	lsls	r1, r1, #17
 80014ec:	430a      	orrs	r2, r1
 80014ee:	66da      	str	r2, [r3, #108]	; 0x6c


	EXTI->FTSR1 |= EXTI_FTSR1_FT11 | EXTI_FTSR1_FT12 | EXTI_FTSR1_FT15;		// Falling edge event
 80014f0:	4b0a      	ldr	r3, [pc, #40]	; (800151c <SystemCFG+0x4ac>)
 80014f2:	685a      	ldr	r2, [r3, #4]
 80014f4:	4b09      	ldr	r3, [pc, #36]	; (800151c <SystemCFG+0x4ac>)
 80014f6:	2198      	movs	r1, #152	; 0x98
 80014f8:	0209      	lsls	r1, r1, #8
 80014fa:	430a      	orrs	r2, r1
 80014fc:	605a      	str	r2, [r3, #4]

	EXTI->IMR1 |= EXTI_IMR1_IM11 | EXTI_IMR1_IM12 | EXTI_IMR1_IM15;
 80014fe:	4a07      	ldr	r2, [pc, #28]	; (800151c <SystemCFG+0x4ac>)
 8001500:	2380      	movs	r3, #128	; 0x80
 8001502:	58d3      	ldr	r3, [r2, r3]
 8001504:	4905      	ldr	r1, [pc, #20]	; (800151c <SystemCFG+0x4ac>)
 8001506:	2298      	movs	r2, #152	; 0x98
 8001508:	0212      	lsls	r2, r2, #8
 800150a:	4313      	orrs	r3, r2
 800150c:	2280      	movs	r2, #128	; 0x80
 800150e:	508b      	str	r3, [r1, r2]
/*
	// *** Enable DMA Channel ***
	DMA1_Channel1->CCR |= DMA_CCR_EN;	// Channel 1 enable (SPI1_TX)
	// *********************************
*/
}
 8001510:	46c0      	nop			; (mov r8, r8)
 8001512:	46bd      	mov	sp, r7
 8001514:	b002      	add	sp, #8
 8001516:	bd80      	pop	{r7, pc}
 8001518:	50000400 	.word	0x50000400
 800151c:	40021800 	.word	0x40021800

08001520 <delay_ms>:


void delay_ms (uint16_t ms)	{
 8001520:	b580      	push	{r7, lr}
 8001522:	b082      	sub	sp, #8
 8001524:	af00      	add	r7, sp, #0
 8001526:	0002      	movs	r2, r0
 8001528:	1dbb      	adds	r3, r7, #6
 800152a:	801a      	strh	r2, [r3, #0]
	d_flag = 0;
 800152c:	4b0a      	ldr	r3, [pc, #40]	; (8001558 <delay_ms+0x38>)
 800152e:	2200      	movs	r2, #0
 8001530:	701a      	strb	r2, [r3, #0]
	TIM14->CCR1 = ms;
 8001532:	4b0a      	ldr	r3, [pc, #40]	; (800155c <delay_ms+0x3c>)
 8001534:	1dba      	adds	r2, r7, #6
 8001536:	8812      	ldrh	r2, [r2, #0]
 8001538:	635a      	str	r2, [r3, #52]	; 0x34
	TIM14->CR1 |= TIM_CR1_CEN;	// Counter enable
 800153a:	4b08      	ldr	r3, [pc, #32]	; (800155c <delay_ms+0x3c>)
 800153c:	681a      	ldr	r2, [r3, #0]
 800153e:	4b07      	ldr	r3, [pc, #28]	; (800155c <delay_ms+0x3c>)
 8001540:	2101      	movs	r1, #1
 8001542:	430a      	orrs	r2, r1
 8001544:	601a      	str	r2, [r3, #0]
	while(!d_flag);
 8001546:	46c0      	nop			; (mov r8, r8)
 8001548:	4b03      	ldr	r3, [pc, #12]	; (8001558 <delay_ms+0x38>)
 800154a:	781b      	ldrb	r3, [r3, #0]
 800154c:	2b00      	cmp	r3, #0
 800154e:	d0fb      	beq.n	8001548 <delay_ms+0x28>
}
 8001550:	46c0      	nop			; (mov r8, r8)
 8001552:	46bd      	mov	sp, r7
 8001554:	b002      	add	sp, #8
 8001556:	bd80      	pop	{r7, pc}
 8001558:	20000066 	.word	0x20000066
 800155c:	40002000 	.word	0x40002000

08001560 <buzz>:
	}
}
*/


void buzz (uint8_t time) {
 8001560:	b580      	push	{r7, lr}
 8001562:	b082      	sub	sp, #8
 8001564:	af00      	add	r7, sp, #0
 8001566:	0002      	movs	r2, r0
 8001568:	1dfb      	adds	r3, r7, #7
 800156a:	701a      	strb	r2, [r3, #0]
	GPIOA->ODR |= GPIO_ODR_OD7;
 800156c:	23a0      	movs	r3, #160	; 0xa0
 800156e:	05db      	lsls	r3, r3, #23
 8001570:	695a      	ldr	r2, [r3, #20]
 8001572:	23a0      	movs	r3, #160	; 0xa0
 8001574:	05db      	lsls	r3, r3, #23
 8001576:	2180      	movs	r1, #128	; 0x80
 8001578:	430a      	orrs	r2, r1
 800157a:	615a      	str	r2, [r3, #20]
	delay_ms(time);
 800157c:	1dfb      	adds	r3, r7, #7
 800157e:	781b      	ldrb	r3, [r3, #0]
 8001580:	b29b      	uxth	r3, r3
 8001582:	0018      	movs	r0, r3
 8001584:	f7ff ffcc 	bl	8001520 <delay_ms>
	GPIOA->ODR &= ~GPIO_ODR_OD7;
 8001588:	23a0      	movs	r3, #160	; 0xa0
 800158a:	05db      	lsls	r3, r3, #23
 800158c:	695a      	ldr	r2, [r3, #20]
 800158e:	23a0      	movs	r3, #160	; 0xa0
 8001590:	05db      	lsls	r3, r3, #23
 8001592:	2180      	movs	r1, #128	; 0x80
 8001594:	438a      	bics	r2, r1
 8001596:	615a      	str	r2, [r3, #20]
}
 8001598:	46c0      	nop			; (mov r8, r8)
 800159a:	46bd      	mov	sp, r7
 800159c:	b002      	add	sp, #8
 800159e:	bd80      	pop	{r7, pc}

080015a0 <TIM14_IRQHandler>:

__attribute__((interrupt)) void TIM14_IRQHandler(void)	{
 80015a0:	b580      	push	{r7, lr}
 80015a2:	af00      	add	r7, sp, #0
	if (TIM14->SR & TIM_SR_CC1IF)	{
 80015a4:	4b0e      	ldr	r3, [pc, #56]	; (80015e0 <TIM14_IRQHandler+0x40>)
 80015a6:	691b      	ldr	r3, [r3, #16]
 80015a8:	2202      	movs	r2, #2
 80015aa:	4013      	ands	r3, r2
 80015ac:	d014      	beq.n	80015d8 <TIM14_IRQHandler+0x38>
		TIM14->SR &= ~TIM_SR_CC1IF;	// Clear flag
 80015ae:	4b0c      	ldr	r3, [pc, #48]	; (80015e0 <TIM14_IRQHandler+0x40>)
 80015b0:	691a      	ldr	r2, [r3, #16]
 80015b2:	4b0b      	ldr	r3, [pc, #44]	; (80015e0 <TIM14_IRQHandler+0x40>)
 80015b4:	2102      	movs	r1, #2
 80015b6:	438a      	bics	r2, r1
 80015b8:	611a      	str	r2, [r3, #16]
		TIM14->CR1 &= ~TIM_CR1_CEN;	// Counter disabled
 80015ba:	4b09      	ldr	r3, [pc, #36]	; (80015e0 <TIM14_IRQHandler+0x40>)
 80015bc:	681a      	ldr	r2, [r3, #0]
 80015be:	4b08      	ldr	r3, [pc, #32]	; (80015e0 <TIM14_IRQHandler+0x40>)
 80015c0:	2101      	movs	r1, #1
 80015c2:	438a      	bics	r2, r1
 80015c4:	601a      	str	r2, [r3, #0]
		TIM14->EGR |= TIM_EGR_UG;	// Reinitialise the counter
 80015c6:	4b06      	ldr	r3, [pc, #24]	; (80015e0 <TIM14_IRQHandler+0x40>)
 80015c8:	695a      	ldr	r2, [r3, #20]
 80015ca:	4b05      	ldr	r3, [pc, #20]	; (80015e0 <TIM14_IRQHandler+0x40>)
 80015cc:	2101      	movs	r1, #1
 80015ce:	430a      	orrs	r2, r1
 80015d0:	615a      	str	r2, [r3, #20]
		d_flag = 1;
 80015d2:	4b04      	ldr	r3, [pc, #16]	; (80015e4 <TIM14_IRQHandler+0x44>)
 80015d4:	2201      	movs	r2, #1
 80015d6:	701a      	strb	r2, [r3, #0]
	}
}
 80015d8:	46c0      	nop			; (mov r8, r8)
 80015da:	46bd      	mov	sp, r7
 80015dc:	bd80      	pop	{r7, pc}
 80015de:	46c0      	nop			; (mov r8, r8)
 80015e0:	40002000 	.word	0x40002000
 80015e4:	20000066 	.word	0x20000066

080015e8 <EXTI4_15_IRQHandler>:


__attribute__((interrupt)) void EXTI4_15_IRQHandler(void)	{
 80015e8:	b580      	push	{r7, lr}
 80015ea:	af00      	add	r7, sp, #0
	if ((EXTI->FPR1 & EXTI_FPR1_FPIF11))	{	// SET button
 80015ec:	4b19      	ldr	r3, [pc, #100]	; (8001654 <EXTI4_15_IRQHandler+0x6c>)
 80015ee:	691a      	ldr	r2, [r3, #16]
 80015f0:	2380      	movs	r3, #128	; 0x80
 80015f2:	011b      	lsls	r3, r3, #4
 80015f4:	4013      	ands	r3, r2
 80015f6:	d009      	beq.n	800160c <EXTI4_15_IRQHandler+0x24>
		EXTI->FPR1 |= EXTI_FPR1_FPIF11;
 80015f8:	4b16      	ldr	r3, [pc, #88]	; (8001654 <EXTI4_15_IRQHandler+0x6c>)
 80015fa:	691a      	ldr	r2, [r3, #16]
 80015fc:	4b15      	ldr	r3, [pc, #84]	; (8001654 <EXTI4_15_IRQHandler+0x6c>)
 80015fe:	2180      	movs	r1, #128	; 0x80
 8001600:	0109      	lsls	r1, r1, #4
 8001602:	430a      	orrs	r2, r1
 8001604:	611a      	str	r2, [r3, #16]
		button_flag[B_SET] = 1;
 8001606:	4b14      	ldr	r3, [pc, #80]	; (8001658 <EXTI4_15_IRQHandler+0x70>)
 8001608:	2201      	movs	r2, #1
 800160a:	701a      	strb	r2, [r3, #0]
		}

	if ((EXTI->FPR1 & EXTI_FPR1_FPIF12))	{	// DOWN button
 800160c:	4b11      	ldr	r3, [pc, #68]	; (8001654 <EXTI4_15_IRQHandler+0x6c>)
 800160e:	691a      	ldr	r2, [r3, #16]
 8001610:	2380      	movs	r3, #128	; 0x80
 8001612:	015b      	lsls	r3, r3, #5
 8001614:	4013      	ands	r3, r2
 8001616:	d009      	beq.n	800162c <EXTI4_15_IRQHandler+0x44>
		EXTI->FPR1 |= EXTI_FPR1_FPIF12;
 8001618:	4b0e      	ldr	r3, [pc, #56]	; (8001654 <EXTI4_15_IRQHandler+0x6c>)
 800161a:	691a      	ldr	r2, [r3, #16]
 800161c:	4b0d      	ldr	r3, [pc, #52]	; (8001654 <EXTI4_15_IRQHandler+0x6c>)
 800161e:	2180      	movs	r1, #128	; 0x80
 8001620:	0149      	lsls	r1, r1, #5
 8001622:	430a      	orrs	r2, r1
 8001624:	611a      	str	r2, [r3, #16]
		button_flag[B_DOWN] = 1;
 8001626:	4b0c      	ldr	r3, [pc, #48]	; (8001658 <EXTI4_15_IRQHandler+0x70>)
 8001628:	2201      	movs	r2, #1
 800162a:	705a      	strb	r2, [r3, #1]
		}

	if ((EXTI->FPR1 & EXTI_FPR1_FPIF15))	{	// UP button
 800162c:	4b09      	ldr	r3, [pc, #36]	; (8001654 <EXTI4_15_IRQHandler+0x6c>)
 800162e:	691a      	ldr	r2, [r3, #16]
 8001630:	2380      	movs	r3, #128	; 0x80
 8001632:	021b      	lsls	r3, r3, #8
 8001634:	4013      	ands	r3, r2
 8001636:	d009      	beq.n	800164c <EXTI4_15_IRQHandler+0x64>
		EXTI->FPR1 |= EXTI_FPR1_FPIF15;
 8001638:	4b06      	ldr	r3, [pc, #24]	; (8001654 <EXTI4_15_IRQHandler+0x6c>)
 800163a:	691a      	ldr	r2, [r3, #16]
 800163c:	4b05      	ldr	r3, [pc, #20]	; (8001654 <EXTI4_15_IRQHandler+0x6c>)
 800163e:	2180      	movs	r1, #128	; 0x80
 8001640:	0209      	lsls	r1, r1, #8
 8001642:	430a      	orrs	r2, r1
 8001644:	611a      	str	r2, [r3, #16]
		button_flag[B_UP] = 1;
 8001646:	4b04      	ldr	r3, [pc, #16]	; (8001658 <EXTI4_15_IRQHandler+0x70>)
 8001648:	2201      	movs	r2, #1
 800164a:	709a      	strb	r2, [r3, #2]
		}

}
 800164c:	46c0      	nop			; (mov r8, r8)
 800164e:	46bd      	mov	sp, r7
 8001650:	bd80      	pop	{r7, pc}
 8001652:	46c0      	nop			; (mov r8, r8)
 8001654:	40021800 	.word	0x40021800
 8001658:	20000060 	.word	0x20000060

0800165c <main>:
#include "segment_dsp.h"
#include "clock.h"
#include "clk_menu.h"


int main(void) {
 800165c:	b5f0      	push	{r4, r5, r6, r7, lr}
 800165e:	b089      	sub	sp, #36	; 0x24
 8001660:	af02      	add	r7, sp, #8

	uint8_t red, green, blue;	// Digit colour channel values

	TMENU menu_strct;

	SystemCFG();	// Configure uC registers
 8001662:	f7ff fd05 	bl	8001070 <SystemCFG>



	// Clear LCD Display (display SPACEs)
	LEDClr();
 8001666:	f000 fdbb 	bl	80021e0 <LEDClr>

	// Clear WS2812B Display
	FillLEDArray(LED_buf, 0, 0, 0);
 800166a:	48b4      	ldr	r0, [pc, #720]	; (800193c <main+0x2e0>)
 800166c:	2300      	movs	r3, #0
 800166e:	2200      	movs	r2, #0
 8001670:	2100      	movs	r1, #0
 8001672:	f001 f8b5 	bl	80027e0 <FillLEDArray>
	SPI_SEND_WSBUF(LED_buf, sizeof(LED_buf));
 8001676:	23a2      	movs	r3, #162	; 0xa2
 8001678:	00da      	lsls	r2, r3, #3
 800167a:	4bb0      	ldr	r3, [pc, #704]	; (800193c <main+0x2e0>)
 800167c:	0011      	movs	r1, r2
 800167e:	0018      	movs	r0, r3
 8001680:	f001 fa58 	bl	8002b34 <SPI_SEND_WSBUF>

	// Welcome strip
	delay_ms(200);
 8001684:	20c8      	movs	r0, #200	; 0xc8
 8001686:	f7ff ff4b 	bl	8001520 <delay_ms>
	welcomeStrip(LED_buf);
 800168a:	4bac      	ldr	r3, [pc, #688]	; (800193c <main+0x2e0>)
 800168c:	0018      	movs	r0, r3
 800168e:	f001 fd3f 	bl	8003110 <welcomeStrip>

	// Scroll welcome message
	ScrollLed("hello celine", medium, sizeof("hello celine"));
 8001692:	4bab      	ldr	r3, [pc, #684]	; (8001940 <main+0x2e4>)
 8001694:	220d      	movs	r2, #13
 8001696:	21c8      	movs	r1, #200	; 0xc8
 8001698:	0018      	movs	r0, r3
 800169a:	f000 f9eb 	bl	8001a74 <ScrollLed>

	loveyou(NULL);
 800169e:	2000      	movs	r0, #0
 80016a0:	f001 fc9e 	bl	8002fe0 <loveyou>

	button_flag[B_UP]=0;
 80016a4:	4ba7      	ldr	r3, [pc, #668]	; (8001944 <main+0x2e8>)
 80016a6:	2200      	movs	r2, #0
 80016a8:	709a      	strb	r2, [r3, #2]
	button_flag[B_DOWN]=0;
 80016aa:	4ba6      	ldr	r3, [pc, #664]	; (8001944 <main+0x2e8>)
 80016ac:	2200      	movs	r2, #0
 80016ae:	705a      	strb	r2, [r3, #1]
	button_flag[B_SET]=0;
 80016b0:	4ba4      	ldr	r3, [pc, #656]	; (8001944 <main+0x2e8>)
 80016b2:	2200      	movs	r2, #0
 80016b4:	701a      	strb	r2, [r3, #0]


	dot_enable[1]++; dot_enable[3]++;	// Enable LED dots (for displaying the date)
 80016b6:	4ba4      	ldr	r3, [pc, #656]	; (8001948 <main+0x2ec>)
 80016b8:	785b      	ldrb	r3, [r3, #1]
 80016ba:	b2db      	uxtb	r3, r3
 80016bc:	3301      	adds	r3, #1
 80016be:	b2da      	uxtb	r2, r3
 80016c0:	4ba1      	ldr	r3, [pc, #644]	; (8001948 <main+0x2ec>)
 80016c2:	705a      	strb	r2, [r3, #1]
 80016c4:	4ba0      	ldr	r3, [pc, #640]	; (8001948 <main+0x2ec>)
 80016c6:	78db      	ldrb	r3, [r3, #3]
 80016c8:	b2db      	uxtb	r3, r3
 80016ca:	3301      	adds	r3, #1
 80016cc:	b2da      	uxtb	r2, r3
 80016ce:	4b9e      	ldr	r3, [pc, #632]	; (8001948 <main+0x2ec>)
 80016d0:	70da      	strb	r2, [r3, #3]


	while (1) {

		// IF ADC idle, start the conversion
		if ((ADC1->CR & ADC_CR_ADSTART) == 0) {
 80016d2:	4b9e      	ldr	r3, [pc, #632]	; (800194c <main+0x2f0>)
 80016d4:	689b      	ldr	r3, [r3, #8]
 80016d6:	2204      	movs	r2, #4
 80016d8:	4013      	ands	r3, r2
 80016da:	d105      	bne.n	80016e8 <main+0x8c>
			ADC1->CR |= ADC_CR_ADSTART;		// Start ADC conversion
 80016dc:	4b9b      	ldr	r3, [pc, #620]	; (800194c <main+0x2f0>)
 80016de:	689a      	ldr	r2, [r3, #8]
 80016e0:	4b9a      	ldr	r3, [pc, #616]	; (800194c <main+0x2f0>)
 80016e2:	2104      	movs	r1, #4
 80016e4:	430a      	orrs	r2, r1
 80016e6:	609a      	str	r2, [r3, #8]
		}


		// Display current date
		DisplayNumberSet(day_t, day_u, month_t, month_u, year_t, year_u);
 80016e8:	4b99      	ldr	r3, [pc, #612]	; (8001950 <main+0x2f4>)
 80016ea:	781b      	ldrb	r3, [r3, #0]
 80016ec:	b2d8      	uxtb	r0, r3
 80016ee:	4b99      	ldr	r3, [pc, #612]	; (8001954 <main+0x2f8>)
 80016f0:	781b      	ldrb	r3, [r3, #0]
 80016f2:	b2d9      	uxtb	r1, r3
 80016f4:	4b98      	ldr	r3, [pc, #608]	; (8001958 <main+0x2fc>)
 80016f6:	781b      	ldrb	r3, [r3, #0]
 80016f8:	b2dc      	uxtb	r4, r3
 80016fa:	4b98      	ldr	r3, [pc, #608]	; (800195c <main+0x300>)
 80016fc:	781b      	ldrb	r3, [r3, #0]
 80016fe:	b2dd      	uxtb	r5, r3
 8001700:	4b97      	ldr	r3, [pc, #604]	; (8001960 <main+0x304>)
 8001702:	781b      	ldrb	r3, [r3, #0]
 8001704:	b2db      	uxtb	r3, r3
 8001706:	4a97      	ldr	r2, [pc, #604]	; (8001964 <main+0x308>)
 8001708:	7812      	ldrb	r2, [r2, #0]
 800170a:	b2d2      	uxtb	r2, r2
 800170c:	9201      	str	r2, [sp, #4]
 800170e:	9300      	str	r3, [sp, #0]
 8001710:	002b      	movs	r3, r5
 8001712:	0022      	movs	r2, r4
 8001714:	f000 f93e 	bl	8001994 <DisplayNumberSet>

		// Assign current color values
		assignColour(hour_t, hour_u, &red, &green, &blue);
 8001718:	4b93      	ldr	r3, [pc, #588]	; (8001968 <main+0x30c>)
 800171a:	781b      	ldrb	r3, [r3, #0]
 800171c:	b2d8      	uxtb	r0, r3
 800171e:	4b93      	ldr	r3, [pc, #588]	; (800196c <main+0x310>)
 8001720:	781b      	ldrb	r3, [r3, #0]
 8001722:	b2d9      	uxtb	r1, r3
 8001724:	2516      	movs	r5, #22
 8001726:	197c      	adds	r4, r7, r5
 8001728:	2617      	movs	r6, #23
 800172a:	19ba      	adds	r2, r7, r6
 800172c:	2315      	movs	r3, #21
 800172e:	18fb      	adds	r3, r7, r3
 8001730:	9300      	str	r3, [sp, #0]
 8001732:	0023      	movs	r3, r4
 8001734:	f001 fa3c 	bl	8002bb0 <assignColour>
		// Display the current date


		// Display the current time
		FillLEDArray(LED_buf, 0, 0, 0);
 8001738:	4880      	ldr	r0, [pc, #512]	; (800193c <main+0x2e0>)
 800173a:	2300      	movs	r3, #0
 800173c:	2200      	movs	r2, #0
 800173e:	2100      	movs	r1, #0
 8001740:	f001 f84e 	bl	80027e0 <FillLEDArray>
		FillLEDNumber(LED_buf, 0, hour_t, red, green, blue);
 8001744:	4b88      	ldr	r3, [pc, #544]	; (8001968 <main+0x30c>)
 8001746:	781b      	ldrb	r3, [r3, #0]
 8001748:	b2d9      	uxtb	r1, r3
 800174a:	19bb      	adds	r3, r7, r6
 800174c:	781c      	ldrb	r4, [r3, #0]
 800174e:	197b      	adds	r3, r7, r5
 8001750:	781b      	ldrb	r3, [r3, #0]
 8001752:	2215      	movs	r2, #21
 8001754:	18ba      	adds	r2, r7, r2
 8001756:	7812      	ldrb	r2, [r2, #0]
 8001758:	4878      	ldr	r0, [pc, #480]	; (800193c <main+0x2e0>)
 800175a:	9201      	str	r2, [sp, #4]
 800175c:	9300      	str	r3, [sp, #0]
 800175e:	0023      	movs	r3, r4
 8001760:	000a      	movs	r2, r1
 8001762:	2100      	movs	r1, #0
 8001764:	f000 fdd2 	bl	800230c <FillLEDNumber>
		FillLEDNumber(LED_buf, 1, hour_u, red, green, blue);
 8001768:	4b80      	ldr	r3, [pc, #512]	; (800196c <main+0x310>)
 800176a:	781b      	ldrb	r3, [r3, #0]
 800176c:	b2d9      	uxtb	r1, r3
 800176e:	19bb      	adds	r3, r7, r6
 8001770:	781c      	ldrb	r4, [r3, #0]
 8001772:	197b      	adds	r3, r7, r5
 8001774:	781b      	ldrb	r3, [r3, #0]
 8001776:	2215      	movs	r2, #21
 8001778:	18ba      	adds	r2, r7, r2
 800177a:	7812      	ldrb	r2, [r2, #0]
 800177c:	486f      	ldr	r0, [pc, #444]	; (800193c <main+0x2e0>)
 800177e:	9201      	str	r2, [sp, #4]
 8001780:	9300      	str	r3, [sp, #0]
 8001782:	0023      	movs	r3, r4
 8001784:	000a      	movs	r2, r1
 8001786:	2101      	movs	r1, #1
 8001788:	f000 fdc0 	bl	800230c <FillLEDNumber>
		FillLEDNumber(LED_buf, 2, minute_t, red, green, blue);
 800178c:	4b78      	ldr	r3, [pc, #480]	; (8001970 <main+0x314>)
 800178e:	781b      	ldrb	r3, [r3, #0]
 8001790:	b2d9      	uxtb	r1, r3
 8001792:	19bb      	adds	r3, r7, r6
 8001794:	781c      	ldrb	r4, [r3, #0]
 8001796:	197b      	adds	r3, r7, r5
 8001798:	781b      	ldrb	r3, [r3, #0]
 800179a:	2215      	movs	r2, #21
 800179c:	18ba      	adds	r2, r7, r2
 800179e:	7812      	ldrb	r2, [r2, #0]
 80017a0:	4866      	ldr	r0, [pc, #408]	; (800193c <main+0x2e0>)
 80017a2:	9201      	str	r2, [sp, #4]
 80017a4:	9300      	str	r3, [sp, #0]
 80017a6:	0023      	movs	r3, r4
 80017a8:	000a      	movs	r2, r1
 80017aa:	2102      	movs	r1, #2
 80017ac:	f000 fdae 	bl	800230c <FillLEDNumber>
		FillLEDNumber(LED_buf, 3, minute_u, red, green, blue);
 80017b0:	4b70      	ldr	r3, [pc, #448]	; (8001974 <main+0x318>)
 80017b2:	781b      	ldrb	r3, [r3, #0]
 80017b4:	b2d9      	uxtb	r1, r3
 80017b6:	19bb      	adds	r3, r7, r6
 80017b8:	781c      	ldrb	r4, [r3, #0]
 80017ba:	197b      	adds	r3, r7, r5
 80017bc:	781b      	ldrb	r3, [r3, #0]
 80017be:	2215      	movs	r2, #21
 80017c0:	18ba      	adds	r2, r7, r2
 80017c2:	7812      	ldrb	r2, [r2, #0]
 80017c4:	485d      	ldr	r0, [pc, #372]	; (800193c <main+0x2e0>)
 80017c6:	9201      	str	r2, [sp, #4]
 80017c8:	9300      	str	r3, [sp, #0]
 80017ca:	0023      	movs	r3, r4
 80017cc:	000a      	movs	r2, r1
 80017ce:	2103      	movs	r1, #3
 80017d0:	f000 fd9c 	bl	800230c <FillLEDNumber>
		SPI_SEND_WSBUF(LED_buf, sizeof(LED_buf));
 80017d4:	23a2      	movs	r3, #162	; 0xa2
 80017d6:	00da      	lsls	r2, r3, #3
 80017d8:	4b58      	ldr	r3, [pc, #352]	; (800193c <main+0x2e0>)
 80017da:	0011      	movs	r1, r2
 80017dc:	0018      	movs	r0, r3
 80017de:	f001 f9a9 	bl	8002b34 <SPI_SEND_WSBUF>
		delay_ms(990);
 80017e2:	4b65      	ldr	r3, [pc, #404]	; (8001978 <main+0x31c>)
 80017e4:	0018      	movs	r0, r3
 80017e6:	f7ff fe9b 	bl	8001520 <delay_ms>
		FillLEDSegment(LED_buf, 26, 27, 0x0f, 0x03, 0);
 80017ea:	4854      	ldr	r0, [pc, #336]	; (800193c <main+0x2e0>)
 80017ec:	2300      	movs	r3, #0
 80017ee:	9301      	str	r3, [sp, #4]
 80017f0:	2303      	movs	r3, #3
 80017f2:	9300      	str	r3, [sp, #0]
 80017f4:	230f      	movs	r3, #15
 80017f6:	221b      	movs	r2, #27
 80017f8:	211a      	movs	r1, #26
 80017fa:	f001 f85f 	bl	80028bc <FillLEDSegment>
		SPI_SEND_WSBUF(LED_buf, sizeof(LED_buf));
 80017fe:	23a2      	movs	r3, #162	; 0xa2
 8001800:	00da      	lsls	r2, r3, #3
 8001802:	4b4e      	ldr	r3, [pc, #312]	; (800193c <main+0x2e0>)
 8001804:	0011      	movs	r1, r2
 8001806:	0018      	movs	r0, r3
 8001808:	f001 f994 	bl	8002b34 <SPI_SEND_WSBUF>
		delay_ms(990);
 800180c:	4b5a      	ldr	r3, [pc, #360]	; (8001978 <main+0x31c>)
 800180e:	0018      	movs	r0, r3
 8001810:	f7ff fe86 	bl	8001520 <delay_ms>

		// Check if menu should be displayed
		if (button_flag[B_SET]) {
 8001814:	4b4b      	ldr	r3, [pc, #300]	; (8001944 <main+0x2e8>)
 8001816:	781b      	ldrb	r3, [r3, #0]
 8001818:	b2db      	uxtb	r3, r3
 800181a:	2b00      	cmp	r3, #0
 800181c:	d012      	beq.n	8001844 <main+0x1e8>
			button_flag[B_SET]=0;
 800181e:	4b49      	ldr	r3, [pc, #292]	; (8001944 <main+0x2e8>)
 8001820:	2200      	movs	r2, #0
 8001822:	701a      	strb	r2, [r3, #0]
			dot_enable[1]=0; dot_enable[3]=0;
 8001824:	4b48      	ldr	r3, [pc, #288]	; (8001948 <main+0x2ec>)
 8001826:	2200      	movs	r2, #0
 8001828:	705a      	strb	r2, [r3, #1]
 800182a:	4b47      	ldr	r3, [pc, #284]	; (8001948 <main+0x2ec>)
 800182c:	2200      	movs	r2, #0
 800182e:	70da      	strb	r2, [r3, #3]
			displayMenu(&menu_strct);
 8001830:	1d3b      	adds	r3, r7, #4
 8001832:	0018      	movs	r0, r3
 8001834:	f7ff f8d8 	bl	80009e8 <displayMenu>
			dot_enable[1]=1; dot_enable[3]=1;
 8001838:	4b43      	ldr	r3, [pc, #268]	; (8001948 <main+0x2ec>)
 800183a:	2201      	movs	r2, #1
 800183c:	705a      	strb	r2, [r3, #1]
 800183e:	4b42      	ldr	r3, [pc, #264]	; (8001948 <main+0x2ec>)
 8001840:	2201      	movs	r2, #1
 8001842:	70da      	strb	r2, [r3, #3]
		}

		// Check alarm mode
		if (al_enable_flag == 1 && al_hour_t == hour_t && al_hour_u == hour_u && al_min_t == minute_t && al_min_u == minute_u) {	// Ring alarm if above is true
 8001844:	4b4d      	ldr	r3, [pc, #308]	; (800197c <main+0x320>)
 8001846:	781b      	ldrb	r3, [r3, #0]
 8001848:	2b01      	cmp	r3, #1
 800184a:	d000      	beq.n	800184e <main+0x1f2>
 800184c:	e741      	b.n	80016d2 <main+0x76>
 800184e:	4b4c      	ldr	r3, [pc, #304]	; (8001980 <main+0x324>)
 8001850:	781a      	ldrb	r2, [r3, #0]
 8001852:	4b45      	ldr	r3, [pc, #276]	; (8001968 <main+0x30c>)
 8001854:	781b      	ldrb	r3, [r3, #0]
 8001856:	b2db      	uxtb	r3, r3
 8001858:	429a      	cmp	r2, r3
 800185a:	d000      	beq.n	800185e <main+0x202>
 800185c:	e739      	b.n	80016d2 <main+0x76>
 800185e:	4b49      	ldr	r3, [pc, #292]	; (8001984 <main+0x328>)
 8001860:	781a      	ldrb	r2, [r3, #0]
 8001862:	4b42      	ldr	r3, [pc, #264]	; (800196c <main+0x310>)
 8001864:	781b      	ldrb	r3, [r3, #0]
 8001866:	b2db      	uxtb	r3, r3
 8001868:	429a      	cmp	r2, r3
 800186a:	d000      	beq.n	800186e <main+0x212>
 800186c:	e731      	b.n	80016d2 <main+0x76>
 800186e:	4b46      	ldr	r3, [pc, #280]	; (8001988 <main+0x32c>)
 8001870:	781a      	ldrb	r2, [r3, #0]
 8001872:	4b3f      	ldr	r3, [pc, #252]	; (8001970 <main+0x314>)
 8001874:	781b      	ldrb	r3, [r3, #0]
 8001876:	b2db      	uxtb	r3, r3
 8001878:	429a      	cmp	r2, r3
 800187a:	d000      	beq.n	800187e <main+0x222>
 800187c:	e729      	b.n	80016d2 <main+0x76>
 800187e:	4b43      	ldr	r3, [pc, #268]	; (800198c <main+0x330>)
 8001880:	781a      	ldrb	r2, [r3, #0]
 8001882:	4b3c      	ldr	r3, [pc, #240]	; (8001974 <main+0x318>)
 8001884:	781b      	ldrb	r3, [r3, #0]
 8001886:	b2db      	uxtb	r3, r3
 8001888:	429a      	cmp	r2, r3
 800188a:	d000      	beq.n	800188e <main+0x232>
 800188c:	e721      	b.n	80016d2 <main+0x76>
			// Clear LCD Display (display SPACEs)
			LEDClr();
 800188e:	f000 fca7 	bl	80021e0 <LEDClr>
			// Clear WS2812B Display
			FillLEDArray(LED_buf, 30, 0, 0);
 8001892:	482a      	ldr	r0, [pc, #168]	; (800193c <main+0x2e0>)
 8001894:	2300      	movs	r3, #0
 8001896:	2200      	movs	r2, #0
 8001898:	211e      	movs	r1, #30
 800189a:	f000 ffa1 	bl	80027e0 <FillLEDArray>
			SPI_SEND_WSBUF(LED_buf, sizeof(LED_buf));
 800189e:	23a2      	movs	r3, #162	; 0xa2
 80018a0:	00da      	lsls	r2, r3, #3
 80018a2:	4b26      	ldr	r3, [pc, #152]	; (800193c <main+0x2e0>)
 80018a4:	0011      	movs	r1, r2
 80018a6:	0018      	movs	r0, r3
 80018a8:	f001 f944 	bl	8002b34 <SPI_SEND_WSBUF>
			DisplayLEDStr("alarm");
 80018ac:	4b38      	ldr	r3, [pc, #224]	; (8001990 <main+0x334>)
 80018ae:	0018      	movs	r0, r3
 80018b0:	f000 f8b9 	bl	8001a26 <DisplayLEDStr>
			dot_enable[1]=0; dot_enable[3]=0;
 80018b4:	4b24      	ldr	r3, [pc, #144]	; (8001948 <main+0x2ec>)
 80018b6:	2200      	movs	r2, #0
 80018b8:	705a      	strb	r2, [r3, #1]
 80018ba:	4b23      	ldr	r3, [pc, #140]	; (8001948 <main+0x2ec>)
 80018bc:	2200      	movs	r2, #0
 80018be:	70da      	strb	r2, [r3, #3]
			while(!button_flag[B_SET]) {
 80018c0:	e01f      	b.n	8001902 <main+0x2a6>
				FillLEDArray(LED_buf, 30, 0, 0);
 80018c2:	481e      	ldr	r0, [pc, #120]	; (800193c <main+0x2e0>)
 80018c4:	2300      	movs	r3, #0
 80018c6:	2200      	movs	r2, #0
 80018c8:	211e      	movs	r1, #30
 80018ca:	f000 ff89 	bl	80027e0 <FillLEDArray>
				SPI_SEND_WSBUF(LED_buf, sizeof(LED_buf));
 80018ce:	23a2      	movs	r3, #162	; 0xa2
 80018d0:	00da      	lsls	r2, r3, #3
 80018d2:	4b1a      	ldr	r3, [pc, #104]	; (800193c <main+0x2e0>)
 80018d4:	0011      	movs	r1, r2
 80018d6:	0018      	movs	r0, r3
 80018d8:	f001 f92c 	bl	8002b34 <SPI_SEND_WSBUF>
				buzz(250);
 80018dc:	20fa      	movs	r0, #250	; 0xfa
 80018de:	f7ff fe3f 	bl	8001560 <buzz>
				FillLEDArray(LED_buf, 0, 0, 30);
 80018e2:	4816      	ldr	r0, [pc, #88]	; (800193c <main+0x2e0>)
 80018e4:	231e      	movs	r3, #30
 80018e6:	2200      	movs	r2, #0
 80018e8:	2100      	movs	r1, #0
 80018ea:	f000 ff79 	bl	80027e0 <FillLEDArray>
				SPI_SEND_WSBUF(LED_buf, sizeof(LED_buf));
 80018ee:	23a2      	movs	r3, #162	; 0xa2
 80018f0:	00da      	lsls	r2, r3, #3
 80018f2:	4b12      	ldr	r3, [pc, #72]	; (800193c <main+0x2e0>)
 80018f4:	0011      	movs	r1, r2
 80018f6:	0018      	movs	r0, r3
 80018f8:	f001 f91c 	bl	8002b34 <SPI_SEND_WSBUF>
				delay_ms(250);
 80018fc:	20fa      	movs	r0, #250	; 0xfa
 80018fe:	f7ff fe0f 	bl	8001520 <delay_ms>
			while(!button_flag[B_SET]) {
 8001902:	4b10      	ldr	r3, [pc, #64]	; (8001944 <main+0x2e8>)
 8001904:	781b      	ldrb	r3, [r3, #0]
 8001906:	b2db      	uxtb	r3, r3
 8001908:	2b00      	cmp	r3, #0
 800190a:	d0da      	beq.n	80018c2 <main+0x266>
			}
			LEDClr();
 800190c:	f000 fc68 	bl	80021e0 <LEDClr>
			button_flag[B_SET]=0;
 8001910:	4b0c      	ldr	r3, [pc, #48]	; (8001944 <main+0x2e8>)
 8001912:	2200      	movs	r2, #0
 8001914:	701a      	strb	r2, [r3, #0]
			dot_enable[1]=1; dot_enable[3]=1;
 8001916:	4b0c      	ldr	r3, [pc, #48]	; (8001948 <main+0x2ec>)
 8001918:	2201      	movs	r2, #1
 800191a:	705a      	strb	r2, [r3, #1]
 800191c:	4b0a      	ldr	r3, [pc, #40]	; (8001948 <main+0x2ec>)
 800191e:	2201      	movs	r2, #1
 8001920:	70da      	strb	r2, [r3, #3]
			al_enable_flag = 0;
 8001922:	4b16      	ldr	r3, [pc, #88]	; (800197c <main+0x320>)
 8001924:	2200      	movs	r2, #0
 8001926:	701a      	strb	r2, [r3, #0]
			GPIOA->ODR &= ~GPIO_ODR_OD6;
 8001928:	23a0      	movs	r3, #160	; 0xa0
 800192a:	05db      	lsls	r3, r3, #23
 800192c:	695a      	ldr	r2, [r3, #20]
 800192e:	23a0      	movs	r3, #160	; 0xa0
 8001930:	05db      	lsls	r3, r3, #23
 8001932:	2140      	movs	r1, #64	; 0x40
 8001934:	438a      	bics	r2, r1
 8001936:	615a      	str	r2, [r3, #20]
		if ((ADC1->CR & ADC_CR_ADSTART) == 0) {
 8001938:	e6cb      	b.n	80016d2 <main+0x76>
 800193a:	46c0      	nop			; (mov r8, r8)
 800193c:	2000006c 	.word	0x2000006c
 8001940:	08003394 	.word	0x08003394
 8001944:	20000060 	.word	0x20000060
 8001948:	20000044 	.word	0x20000044
 800194c:	40012400 	.word	0x40012400
 8001950:	20000058 	.word	0x20000058
 8001954:	20000063 	.word	0x20000063
 8001958:	2000057d 	.word	0x2000057d
 800195c:	20000069 	.word	0x20000069
 8001960:	20000068 	.word	0x20000068
 8001964:	20000059 	.word	0x20000059
 8001968:	2000057c 	.word	0x2000057c
 800196c:	2000005b 	.word	0x2000005b
 8001970:	2000005a 	.word	0x2000005a
 8001974:	20000064 	.word	0x20000064
 8001978:	000003de 	.word	0x000003de
 800197c:	2000005c 	.word	0x2000005c
 8001980:	20000065 	.word	0x20000065
 8001984:	2000005d 	.word	0x2000005d
 8001988:	20000067 	.word	0x20000067
 800198c:	2000006a 	.word	0x2000006a
 8001990:	080033a4 	.word	0x080033a4

08001994 <DisplayNumberSet>:

// Select for which DOT should be enabled
volatile uint8_t dot_enable[6] = {OFF, OFF, OFF, OFF, OFF, OFF};


void DisplayNumberSet(uint8_t n0, uint8_t n1, uint8_t n2, uint8_t n3, uint8_t n4, uint8_t n5) {
 8001994:	b5b0      	push	{r4, r5, r7, lr}
 8001996:	b082      	sub	sp, #8
 8001998:	af00      	add	r7, sp, #0
 800199a:	0005      	movs	r5, r0
 800199c:	000c      	movs	r4, r1
 800199e:	0010      	movs	r0, r2
 80019a0:	0019      	movs	r1, r3
 80019a2:	1dfb      	adds	r3, r7, #7
 80019a4:	1c2a      	adds	r2, r5, #0
 80019a6:	701a      	strb	r2, [r3, #0]
 80019a8:	1dbb      	adds	r3, r7, #6
 80019aa:	1c22      	adds	r2, r4, #0
 80019ac:	701a      	strb	r2, [r3, #0]
 80019ae:	1d7b      	adds	r3, r7, #5
 80019b0:	1c02      	adds	r2, r0, #0
 80019b2:	701a      	strb	r2, [r3, #0]
 80019b4:	1d3b      	adds	r3, r7, #4
 80019b6:	1c0a      	adds	r2, r1, #0
 80019b8:	701a      	strb	r2, [r3, #0]
	displayChar((n0+48), 0);
 80019ba:	1dfb      	adds	r3, r7, #7
 80019bc:	781b      	ldrb	r3, [r3, #0]
 80019be:	3330      	adds	r3, #48	; 0x30
 80019c0:	b2db      	uxtb	r3, r3
 80019c2:	2100      	movs	r1, #0
 80019c4:	0018      	movs	r0, r3
 80019c6:	f000 f977 	bl	8001cb8 <displayChar>
	displayChar((n1+48), 1);
 80019ca:	1dbb      	adds	r3, r7, #6
 80019cc:	781b      	ldrb	r3, [r3, #0]
 80019ce:	3330      	adds	r3, #48	; 0x30
 80019d0:	b2db      	uxtb	r3, r3
 80019d2:	2101      	movs	r1, #1
 80019d4:	0018      	movs	r0, r3
 80019d6:	f000 f96f 	bl	8001cb8 <displayChar>
	displayChar((n2+48), 2);
 80019da:	1d7b      	adds	r3, r7, #5
 80019dc:	781b      	ldrb	r3, [r3, #0]
 80019de:	3330      	adds	r3, #48	; 0x30
 80019e0:	b2db      	uxtb	r3, r3
 80019e2:	2102      	movs	r1, #2
 80019e4:	0018      	movs	r0, r3
 80019e6:	f000 f967 	bl	8001cb8 <displayChar>
	displayChar((n3+48), 3);
 80019ea:	1d3b      	adds	r3, r7, #4
 80019ec:	781b      	ldrb	r3, [r3, #0]
 80019ee:	3330      	adds	r3, #48	; 0x30
 80019f0:	b2db      	uxtb	r3, r3
 80019f2:	2103      	movs	r1, #3
 80019f4:	0018      	movs	r0, r3
 80019f6:	f000 f95f 	bl	8001cb8 <displayChar>
	displayChar((n4+48), 4);
 80019fa:	2318      	movs	r3, #24
 80019fc:	18fb      	adds	r3, r7, r3
 80019fe:	781b      	ldrb	r3, [r3, #0]
 8001a00:	3330      	adds	r3, #48	; 0x30
 8001a02:	b2db      	uxtb	r3, r3
 8001a04:	2104      	movs	r1, #4
 8001a06:	0018      	movs	r0, r3
 8001a08:	f000 f956 	bl	8001cb8 <displayChar>
	displayChar((n5+48), 5);
 8001a0c:	231c      	movs	r3, #28
 8001a0e:	18fb      	adds	r3, r7, r3
 8001a10:	781b      	ldrb	r3, [r3, #0]
 8001a12:	3330      	adds	r3, #48	; 0x30
 8001a14:	b2db      	uxtb	r3, r3
 8001a16:	2105      	movs	r1, #5
 8001a18:	0018      	movs	r0, r3
 8001a1a:	f000 f94d 	bl	8001cb8 <displayChar>
	// 48 must be added to reach the number char value from the ASCII table
}
 8001a1e:	46c0      	nop			; (mov r8, r8)
 8001a20:	46bd      	mov	sp, r7
 8001a22:	b002      	add	sp, #8
 8001a24:	bdb0      	pop	{r4, r5, r7, pc}

08001a26 <DisplayLEDStr>:

void DisplayLEDStr(char * str) {
 8001a26:	b590      	push	{r4, r7, lr}
 8001a28:	b085      	sub	sp, #20
 8001a2a:	af00      	add	r7, sp, #0
 8001a2c:	6078      	str	r0, [r7, #4]
	uint8_t i;
	LEDClr();
 8001a2e:	f000 fbd7 	bl	80021e0 <LEDClr>
	for (i=0; i<6; i++) {
 8001a32:	230f      	movs	r3, #15
 8001a34:	18fb      	adds	r3, r7, r3
 8001a36:	2200      	movs	r2, #0
 8001a38:	701a      	strb	r2, [r3, #0]
 8001a3a:	e012      	b.n	8001a62 <DisplayLEDStr+0x3c>
		displayChar(str[i], i);
 8001a3c:	210f      	movs	r1, #15
 8001a3e:	187b      	adds	r3, r7, r1
 8001a40:	781b      	ldrb	r3, [r3, #0]
 8001a42:	687a      	ldr	r2, [r7, #4]
 8001a44:	18d3      	adds	r3, r2, r3
 8001a46:	781a      	ldrb	r2, [r3, #0]
 8001a48:	000c      	movs	r4, r1
 8001a4a:	187b      	adds	r3, r7, r1
 8001a4c:	781b      	ldrb	r3, [r3, #0]
 8001a4e:	0019      	movs	r1, r3
 8001a50:	0010      	movs	r0, r2
 8001a52:	f000 f931 	bl	8001cb8 <displayChar>
	for (i=0; i<6; i++) {
 8001a56:	0021      	movs	r1, r4
 8001a58:	187b      	adds	r3, r7, r1
 8001a5a:	781a      	ldrb	r2, [r3, #0]
 8001a5c:	187b      	adds	r3, r7, r1
 8001a5e:	3201      	adds	r2, #1
 8001a60:	701a      	strb	r2, [r3, #0]
 8001a62:	230f      	movs	r3, #15
 8001a64:	18fb      	adds	r3, r7, r3
 8001a66:	781b      	ldrb	r3, [r3, #0]
 8001a68:	2b05      	cmp	r3, #5
 8001a6a:	d9e7      	bls.n	8001a3c <DisplayLEDStr+0x16>
	}
}
 8001a6c:	46c0      	nop			; (mov r8, r8)
 8001a6e:	46bd      	mov	sp, r7
 8001a70:	b005      	add	sp, #20
 8001a72:	bd90      	pop	{r4, r7, pc}

08001a74 <ScrollLed>:

void ScrollLed(char * data, uint16_t speed, uint8_t len) {
 8001a74:	b5f0      	push	{r4, r5, r6, r7, lr}
 8001a76:	b08d      	sub	sp, #52	; 0x34
 8001a78:	af00      	add	r7, sp, #0
 8001a7a:	61f8      	str	r0, [r7, #28]
 8001a7c:	0010      	movs	r0, r2
 8001a7e:	221a      	movs	r2, #26
 8001a80:	18ba      	adds	r2, r7, r2
 8001a82:	8011      	strh	r1, [r2, #0]
 8001a84:	2219      	movs	r2, #25
 8001a86:	18ba      	adds	r2, r7, r2
 8001a88:	1c01      	adds	r1, r0, #0
 8001a8a:	7011      	strb	r1, [r2, #0]
 8001a8c:	466a      	mov	r2, sp
 8001a8e:	607a      	str	r2, [r7, #4]
	uint8_t j=0;
 8001a90:	2216      	movs	r2, #22
 8001a92:	2118      	movs	r1, #24
 8001a94:	468c      	mov	ip, r1
 8001a96:	44bc      	add	ip, r7
 8001a98:	4462      	add	r2, ip
 8001a9a:	2100      	movs	r1, #0
 8001a9c:	7011      	strb	r1, [r2, #0]
	uint8_t k=0;
 8001a9e:	2117      	movs	r1, #23
 8001aa0:	2018      	movs	r0, #24
 8001aa2:	1838      	adds	r0, r7, r0
 8001aa4:	1842      	adds	r2, r0, r1
 8001aa6:	2100      	movs	r1, #0
 8001aa8:	7011      	strb	r1, [r2, #0]
	char temp_buf[len+12];
 8001aaa:	2219      	movs	r2, #25
 8001aac:	18ba      	adds	r2, r7, r2
 8001aae:	7812      	ldrb	r2, [r2, #0]
 8001ab0:	320c      	adds	r2, #12
 8001ab2:	1e51      	subs	r1, r2, #1
 8001ab4:	62b9      	str	r1, [r7, #40]	; 0x28
 8001ab6:	0011      	movs	r1, r2
 8001ab8:	6139      	str	r1, [r7, #16]
 8001aba:	2100      	movs	r1, #0
 8001abc:	6179      	str	r1, [r7, #20]
 8001abe:	6939      	ldr	r1, [r7, #16]
 8001ac0:	0f49      	lsrs	r1, r1, #29
 8001ac2:	6978      	ldr	r0, [r7, #20]
 8001ac4:	00c6      	lsls	r6, r0, #3
 8001ac6:	430e      	orrs	r6, r1
 8001ac8:	6939      	ldr	r1, [r7, #16]
 8001aca:	00cd      	lsls	r5, r1, #3
 8001acc:	0011      	movs	r1, r2
 8001ace:	60b9      	str	r1, [r7, #8]
 8001ad0:	2100      	movs	r1, #0
 8001ad2:	60f9      	str	r1, [r7, #12]
 8001ad4:	68bd      	ldr	r5, [r7, #8]
 8001ad6:	68fe      	ldr	r6, [r7, #12]
 8001ad8:	0029      	movs	r1, r5
 8001ada:	0f49      	lsrs	r1, r1, #29
 8001adc:	0030      	movs	r0, r6
 8001ade:	00c4      	lsls	r4, r0, #3
 8001ae0:	430c      	orrs	r4, r1
 8001ae2:	0029      	movs	r1, r5
 8001ae4:	00cb      	lsls	r3, r1, #3
 8001ae6:	0013      	movs	r3, r2
 8001ae8:	3307      	adds	r3, #7
 8001aea:	08db      	lsrs	r3, r3, #3
 8001aec:	00db      	lsls	r3, r3, #3
 8001aee:	4669      	mov	r1, sp
 8001af0:	1acb      	subs	r3, r1, r3
 8001af2:	469d      	mov	sp, r3
 8001af4:	466b      	mov	r3, sp
 8001af6:	3300      	adds	r3, #0
 8001af8:	627b      	str	r3, [r7, #36]	; 0x24
	memset(temp_buf, 32, (len+12));
 8001afa:	6a78      	ldr	r0, [r7, #36]	; 0x24
 8001afc:	2319      	movs	r3, #25
 8001afe:	18fb      	adds	r3, r7, r3
 8001b00:	781b      	ldrb	r3, [r3, #0]
 8001b02:	330c      	adds	r3, #12
 8001b04:	001a      	movs	r2, r3
 8001b06:	2120      	movs	r1, #32
 8001b08:	f001 fc10 	bl	800332c <memset>
	for (j=6; j<(5+len); j++) {
 8001b0c:	2216      	movs	r2, #22
 8001b0e:	2318      	movs	r3, #24
 8001b10:	18fb      	adds	r3, r7, r3
 8001b12:	189b      	adds	r3, r3, r2
 8001b14:	2206      	movs	r2, #6
 8001b16:	701a      	strb	r2, [r3, #0]
 8001b18:	e01b      	b.n	8001b52 <ScrollLed+0xde>
		temp_buf[j] = data[k];
 8001b1a:	2017      	movs	r0, #23
 8001b1c:	2518      	movs	r5, #24
 8001b1e:	197b      	adds	r3, r7, r5
 8001b20:	181b      	adds	r3, r3, r0
 8001b22:	781b      	ldrb	r3, [r3, #0]
 8001b24:	69fa      	ldr	r2, [r7, #28]
 8001b26:	18d2      	adds	r2, r2, r3
 8001b28:	2416      	movs	r4, #22
 8001b2a:	197b      	adds	r3, r7, r5
 8001b2c:	191b      	adds	r3, r3, r4
 8001b2e:	781b      	ldrb	r3, [r3, #0]
 8001b30:	7811      	ldrb	r1, [r2, #0]
 8001b32:	6a7a      	ldr	r2, [r7, #36]	; 0x24
 8001b34:	54d1      	strb	r1, [r2, r3]
		k++;
 8001b36:	197b      	adds	r3, r7, r5
 8001b38:	181b      	adds	r3, r3, r0
 8001b3a:	781a      	ldrb	r2, [r3, #0]
 8001b3c:	197b      	adds	r3, r7, r5
 8001b3e:	181b      	adds	r3, r3, r0
 8001b40:	3201      	adds	r2, #1
 8001b42:	701a      	strb	r2, [r3, #0]
	for (j=6; j<(5+len); j++) {
 8001b44:	197b      	adds	r3, r7, r5
 8001b46:	191b      	adds	r3, r3, r4
 8001b48:	781a      	ldrb	r2, [r3, #0]
 8001b4a:	197b      	adds	r3, r7, r5
 8001b4c:	191b      	adds	r3, r3, r4
 8001b4e:	3201      	adds	r2, #1
 8001b50:	701a      	strb	r2, [r3, #0]
 8001b52:	2316      	movs	r3, #22
 8001b54:	2218      	movs	r2, #24
 8001b56:	4694      	mov	ip, r2
 8001b58:	44bc      	add	ip, r7
 8001b5a:	4463      	add	r3, ip
 8001b5c:	781a      	ldrb	r2, [r3, #0]
 8001b5e:	2319      	movs	r3, #25
 8001b60:	18fb      	adds	r3, r7, r3
 8001b62:	781b      	ldrb	r3, [r3, #0]
 8001b64:	3305      	adds	r3, #5
 8001b66:	429a      	cmp	r2, r3
 8001b68:	dbd7      	blt.n	8001b1a <ScrollLed+0xa6>
	}
	k=0;
 8001b6a:	2317      	movs	r3, #23
 8001b6c:	2218      	movs	r2, #24
 8001b6e:	4694      	mov	ip, r2
 8001b70:	44bc      	add	ip, r7
 8001b72:	4463      	add	r3, ip
 8001b74:	2200      	movs	r2, #0
 8001b76:	701a      	strb	r2, [r3, #0]
	for (j=0; j<=(6+len); j++) {
 8001b78:	2316      	movs	r3, #22
 8001b7a:	2218      	movs	r2, #24
 8001b7c:	4694      	mov	ip, r2
 8001b7e:	44bc      	add	ip, r7
 8001b80:	4463      	add	r3, ip
 8001b82:	2200      	movs	r2, #0
 8001b84:	701a      	strb	r2, [r3, #0]
 8001b86:	e084      	b.n	8001c92 <ScrollLed+0x21e>
		displayChar(temp_buf[k+j], 0); k++;
 8001b88:	2417      	movs	r4, #23
 8001b8a:	2618      	movs	r6, #24
 8001b8c:	19bb      	adds	r3, r7, r6
 8001b8e:	191b      	adds	r3, r3, r4
 8001b90:	781a      	ldrb	r2, [r3, #0]
 8001b92:	2516      	movs	r5, #22
 8001b94:	19bb      	adds	r3, r7, r6
 8001b96:	195b      	adds	r3, r3, r5
 8001b98:	781b      	ldrb	r3, [r3, #0]
 8001b9a:	18d3      	adds	r3, r2, r3
 8001b9c:	6a7a      	ldr	r2, [r7, #36]	; 0x24
 8001b9e:	5cd3      	ldrb	r3, [r2, r3]
 8001ba0:	2100      	movs	r1, #0
 8001ba2:	0018      	movs	r0, r3
 8001ba4:	f000 f888 	bl	8001cb8 <displayChar>
 8001ba8:	19bb      	adds	r3, r7, r6
 8001baa:	191b      	adds	r3, r3, r4
 8001bac:	781a      	ldrb	r2, [r3, #0]
 8001bae:	19bb      	adds	r3, r7, r6
 8001bb0:	191b      	adds	r3, r3, r4
 8001bb2:	3201      	adds	r2, #1
 8001bb4:	701a      	strb	r2, [r3, #0]
		displayChar(temp_buf[k+j], 1); k++;
 8001bb6:	19bb      	adds	r3, r7, r6
 8001bb8:	191b      	adds	r3, r3, r4
 8001bba:	781a      	ldrb	r2, [r3, #0]
 8001bbc:	19bb      	adds	r3, r7, r6
 8001bbe:	195b      	adds	r3, r3, r5
 8001bc0:	781b      	ldrb	r3, [r3, #0]
 8001bc2:	18d3      	adds	r3, r2, r3
 8001bc4:	6a7a      	ldr	r2, [r7, #36]	; 0x24
 8001bc6:	5cd3      	ldrb	r3, [r2, r3]
 8001bc8:	2101      	movs	r1, #1
 8001bca:	0018      	movs	r0, r3
 8001bcc:	f000 f874 	bl	8001cb8 <displayChar>
 8001bd0:	19bb      	adds	r3, r7, r6
 8001bd2:	191b      	adds	r3, r3, r4
 8001bd4:	781a      	ldrb	r2, [r3, #0]
 8001bd6:	19bb      	adds	r3, r7, r6
 8001bd8:	191b      	adds	r3, r3, r4
 8001bda:	3201      	adds	r2, #1
 8001bdc:	701a      	strb	r2, [r3, #0]
		displayChar(temp_buf[k+j], 2); k++;
 8001bde:	19bb      	adds	r3, r7, r6
 8001be0:	191b      	adds	r3, r3, r4
 8001be2:	781a      	ldrb	r2, [r3, #0]
 8001be4:	19bb      	adds	r3, r7, r6
 8001be6:	195b      	adds	r3, r3, r5
 8001be8:	781b      	ldrb	r3, [r3, #0]
 8001bea:	18d3      	adds	r3, r2, r3
 8001bec:	6a7a      	ldr	r2, [r7, #36]	; 0x24
 8001bee:	5cd3      	ldrb	r3, [r2, r3]
 8001bf0:	2102      	movs	r1, #2
 8001bf2:	0018      	movs	r0, r3
 8001bf4:	f000 f860 	bl	8001cb8 <displayChar>
 8001bf8:	19bb      	adds	r3, r7, r6
 8001bfa:	191b      	adds	r3, r3, r4
 8001bfc:	781a      	ldrb	r2, [r3, #0]
 8001bfe:	19bb      	adds	r3, r7, r6
 8001c00:	191b      	adds	r3, r3, r4
 8001c02:	3201      	adds	r2, #1
 8001c04:	701a      	strb	r2, [r3, #0]
		displayChar(temp_buf[k+j], 3); k++;
 8001c06:	19bb      	adds	r3, r7, r6
 8001c08:	191b      	adds	r3, r3, r4
 8001c0a:	781a      	ldrb	r2, [r3, #0]
 8001c0c:	19bb      	adds	r3, r7, r6
 8001c0e:	195b      	adds	r3, r3, r5
 8001c10:	781b      	ldrb	r3, [r3, #0]
 8001c12:	18d3      	adds	r3, r2, r3
 8001c14:	6a7a      	ldr	r2, [r7, #36]	; 0x24
 8001c16:	5cd3      	ldrb	r3, [r2, r3]
 8001c18:	2103      	movs	r1, #3
 8001c1a:	0018      	movs	r0, r3
 8001c1c:	f000 f84c 	bl	8001cb8 <displayChar>
 8001c20:	19bb      	adds	r3, r7, r6
 8001c22:	191b      	adds	r3, r3, r4
 8001c24:	781a      	ldrb	r2, [r3, #0]
 8001c26:	19bb      	adds	r3, r7, r6
 8001c28:	191b      	adds	r3, r3, r4
 8001c2a:	3201      	adds	r2, #1
 8001c2c:	701a      	strb	r2, [r3, #0]
		displayChar(temp_buf[k+j], 4); k++;
 8001c2e:	19bb      	adds	r3, r7, r6
 8001c30:	191b      	adds	r3, r3, r4
 8001c32:	781a      	ldrb	r2, [r3, #0]
 8001c34:	19bb      	adds	r3, r7, r6
 8001c36:	195b      	adds	r3, r3, r5
 8001c38:	781b      	ldrb	r3, [r3, #0]
 8001c3a:	18d3      	adds	r3, r2, r3
 8001c3c:	6a7a      	ldr	r2, [r7, #36]	; 0x24
 8001c3e:	5cd3      	ldrb	r3, [r2, r3]
 8001c40:	2104      	movs	r1, #4
 8001c42:	0018      	movs	r0, r3
 8001c44:	f000 f838 	bl	8001cb8 <displayChar>
 8001c48:	19bb      	adds	r3, r7, r6
 8001c4a:	191b      	adds	r3, r3, r4
 8001c4c:	781a      	ldrb	r2, [r3, #0]
 8001c4e:	19bb      	adds	r3, r7, r6
 8001c50:	191b      	adds	r3, r3, r4
 8001c52:	3201      	adds	r2, #1
 8001c54:	701a      	strb	r2, [r3, #0]
		displayChar(temp_buf[k+j], 5); k=0;
 8001c56:	19bb      	adds	r3, r7, r6
 8001c58:	191b      	adds	r3, r3, r4
 8001c5a:	781a      	ldrb	r2, [r3, #0]
 8001c5c:	19bb      	adds	r3, r7, r6
 8001c5e:	195b      	adds	r3, r3, r5
 8001c60:	781b      	ldrb	r3, [r3, #0]
 8001c62:	18d3      	adds	r3, r2, r3
 8001c64:	6a7a      	ldr	r2, [r7, #36]	; 0x24
 8001c66:	5cd3      	ldrb	r3, [r2, r3]
 8001c68:	2105      	movs	r1, #5
 8001c6a:	0018      	movs	r0, r3
 8001c6c:	f000 f824 	bl	8001cb8 <displayChar>
 8001c70:	19bb      	adds	r3, r7, r6
 8001c72:	191b      	adds	r3, r3, r4
 8001c74:	2200      	movs	r2, #0
 8001c76:	701a      	strb	r2, [r3, #0]
		delay_ms(speed);
 8001c78:	231a      	movs	r3, #26
 8001c7a:	18fb      	adds	r3, r7, r3
 8001c7c:	881b      	ldrh	r3, [r3, #0]
 8001c7e:	0018      	movs	r0, r3
 8001c80:	f7ff fc4e 	bl	8001520 <delay_ms>
	for (j=0; j<=(6+len); j++) {
 8001c84:	19bb      	adds	r3, r7, r6
 8001c86:	195b      	adds	r3, r3, r5
 8001c88:	781a      	ldrb	r2, [r3, #0]
 8001c8a:	19bb      	adds	r3, r7, r6
 8001c8c:	195b      	adds	r3, r3, r5
 8001c8e:	3201      	adds	r2, #1
 8001c90:	701a      	strb	r2, [r3, #0]
 8001c92:	2316      	movs	r3, #22
 8001c94:	2218      	movs	r2, #24
 8001c96:	4694      	mov	ip, r2
 8001c98:	44bc      	add	ip, r7
 8001c9a:	4463      	add	r3, ip
 8001c9c:	781a      	ldrb	r2, [r3, #0]
 8001c9e:	2319      	movs	r3, #25
 8001ca0:	18fb      	adds	r3, r7, r3
 8001ca2:	781b      	ldrb	r3, [r3, #0]
 8001ca4:	3306      	adds	r3, #6
 8001ca6:	429a      	cmp	r2, r3
 8001ca8:	dc00      	bgt.n	8001cac <ScrollLed+0x238>
 8001caa:	e76d      	b.n	8001b88 <ScrollLed+0x114>
 8001cac:	687b      	ldr	r3, [r7, #4]
 8001cae:	469d      	mov	sp, r3
	}
}
 8001cb0:	46c0      	nop			; (mov r8, r8)
 8001cb2:	46bd      	mov	sp, r7
 8001cb4:	b00d      	add	sp, #52	; 0x34
 8001cb6:	bdf0      	pop	{r4, r5, r6, r7, pc}

08001cb8 <displayChar>:

void displayChar(char c, uint8_t pos) {
 8001cb8:	b580      	push	{r7, lr}
 8001cba:	b082      	sub	sp, #8
 8001cbc:	af00      	add	r7, sp, #0
 8001cbe:	0002      	movs	r2, r0
 8001cc0:	1dfb      	adds	r3, r7, #7
 8001cc2:	701a      	strb	r2, [r3, #0]
 8001cc4:	1dbb      	adds	r3, r7, #6
 8001cc6:	1c0a      	adds	r2, r1, #0
 8001cc8:	701a      	strb	r2, [r3, #0]
	if (pos<0 && pos>5) return;
	if ((c>47 && c<58) || (c>96 && c<123) || (c==32)) {
 8001cca:	1dfb      	adds	r3, r7, #7
 8001ccc:	781b      	ldrb	r3, [r3, #0]
 8001cce:	2b2f      	cmp	r3, #47	; 0x2f
 8001cd0:	d903      	bls.n	8001cda <displayChar+0x22>
 8001cd2:	1dfb      	adds	r3, r7, #7
 8001cd4:	781b      	ldrb	r3, [r3, #0]
 8001cd6:	2b39      	cmp	r3, #57	; 0x39
 8001cd8:	d90c      	bls.n	8001cf4 <displayChar+0x3c>
 8001cda:	1dfb      	adds	r3, r7, #7
 8001cdc:	781b      	ldrb	r3, [r3, #0]
 8001cde:	2b60      	cmp	r3, #96	; 0x60
 8001ce0:	d903      	bls.n	8001cea <displayChar+0x32>
 8001ce2:	1dfb      	adds	r3, r7, #7
 8001ce4:	781b      	ldrb	r3, [r3, #0]
 8001ce6:	2b7a      	cmp	r3, #122	; 0x7a
 8001ce8:	d904      	bls.n	8001cf4 <displayChar+0x3c>
 8001cea:	1dfb      	adds	r3, r7, #7
 8001cec:	781b      	ldrb	r3, [r3, #0]
 8001cee:	2b20      	cmp	r3, #32
 8001cf0:	d000      	beq.n	8001cf4 <displayChar+0x3c>
 8001cf2:	e1dc      	b.n	80020ae <displayChar+0x3f6>
		if (c=='0') {led_dsp[pos] = ZERO; return;}
 8001cf4:	1dfb      	adds	r3, r7, #7
 8001cf6:	781b      	ldrb	r3, [r3, #0]
 8001cf8:	2b30      	cmp	r3, #48	; 0x30
 8001cfa:	d106      	bne.n	8001d0a <displayChar+0x52>
 8001cfc:	1dbb      	adds	r3, r7, #6
 8001cfe:	781a      	ldrb	r2, [r3, #0]
 8001d00:	49c2      	ldr	r1, [pc, #776]	; (800200c <displayChar+0x354>)
 8001d02:	4bc3      	ldr	r3, [pc, #780]	; (8002010 <displayChar+0x358>)
 8001d04:	0052      	lsls	r2, r2, #1
 8001d06:	52d1      	strh	r1, [r2, r3]
 8001d08:	e1d1      	b.n	80020ae <displayChar+0x3f6>
		if (c=='1') {led_dsp[pos] = ONE; return;}
 8001d0a:	1dfb      	adds	r3, r7, #7
 8001d0c:	781b      	ldrb	r3, [r3, #0]
 8001d0e:	2b31      	cmp	r3, #49	; 0x31
 8001d10:	d106      	bne.n	8001d20 <displayChar+0x68>
 8001d12:	1dbb      	adds	r3, r7, #6
 8001d14:	781a      	ldrb	r2, [r3, #0]
 8001d16:	49bf      	ldr	r1, [pc, #764]	; (8002014 <displayChar+0x35c>)
 8001d18:	4bbd      	ldr	r3, [pc, #756]	; (8002010 <displayChar+0x358>)
 8001d1a:	0052      	lsls	r2, r2, #1
 8001d1c:	52d1      	strh	r1, [r2, r3]
 8001d1e:	e1c6      	b.n	80020ae <displayChar+0x3f6>
		if (c=='2') {led_dsp[pos] = TWO; return;}
 8001d20:	1dfb      	adds	r3, r7, #7
 8001d22:	781b      	ldrb	r3, [r3, #0]
 8001d24:	2b32      	cmp	r3, #50	; 0x32
 8001d26:	d106      	bne.n	8001d36 <displayChar+0x7e>
 8001d28:	1dbb      	adds	r3, r7, #6
 8001d2a:	781a      	ldrb	r2, [r3, #0]
 8001d2c:	49ba      	ldr	r1, [pc, #744]	; (8002018 <displayChar+0x360>)
 8001d2e:	4bb8      	ldr	r3, [pc, #736]	; (8002010 <displayChar+0x358>)
 8001d30:	0052      	lsls	r2, r2, #1
 8001d32:	52d1      	strh	r1, [r2, r3]
 8001d34:	e1bb      	b.n	80020ae <displayChar+0x3f6>
		if (c=='3') {led_dsp[pos] = THREE; return;}
 8001d36:	1dfb      	adds	r3, r7, #7
 8001d38:	781b      	ldrb	r3, [r3, #0]
 8001d3a:	2b33      	cmp	r3, #51	; 0x33
 8001d3c:	d106      	bne.n	8001d4c <displayChar+0x94>
 8001d3e:	1dbb      	adds	r3, r7, #6
 8001d40:	781a      	ldrb	r2, [r3, #0]
 8001d42:	49b6      	ldr	r1, [pc, #728]	; (800201c <displayChar+0x364>)
 8001d44:	4bb2      	ldr	r3, [pc, #712]	; (8002010 <displayChar+0x358>)
 8001d46:	0052      	lsls	r2, r2, #1
 8001d48:	52d1      	strh	r1, [r2, r3]
 8001d4a:	e1b0      	b.n	80020ae <displayChar+0x3f6>
		if (c=='4') {led_dsp[pos] = FOUR; return;}
 8001d4c:	1dfb      	adds	r3, r7, #7
 8001d4e:	781b      	ldrb	r3, [r3, #0]
 8001d50:	2b34      	cmp	r3, #52	; 0x34
 8001d52:	d106      	bne.n	8001d62 <displayChar+0xaa>
 8001d54:	1dbb      	adds	r3, r7, #6
 8001d56:	781a      	ldrb	r2, [r3, #0]
 8001d58:	49b1      	ldr	r1, [pc, #708]	; (8002020 <displayChar+0x368>)
 8001d5a:	4bad      	ldr	r3, [pc, #692]	; (8002010 <displayChar+0x358>)
 8001d5c:	0052      	lsls	r2, r2, #1
 8001d5e:	52d1      	strh	r1, [r2, r3]
 8001d60:	e1a5      	b.n	80020ae <displayChar+0x3f6>
		if (c=='5') {led_dsp[pos] = FIVE; return;}
 8001d62:	1dfb      	adds	r3, r7, #7
 8001d64:	781b      	ldrb	r3, [r3, #0]
 8001d66:	2b35      	cmp	r3, #53	; 0x35
 8001d68:	d106      	bne.n	8001d78 <displayChar+0xc0>
 8001d6a:	1dbb      	adds	r3, r7, #6
 8001d6c:	781a      	ldrb	r2, [r3, #0]
 8001d6e:	49ad      	ldr	r1, [pc, #692]	; (8002024 <displayChar+0x36c>)
 8001d70:	4ba7      	ldr	r3, [pc, #668]	; (8002010 <displayChar+0x358>)
 8001d72:	0052      	lsls	r2, r2, #1
 8001d74:	52d1      	strh	r1, [r2, r3]
 8001d76:	e19a      	b.n	80020ae <displayChar+0x3f6>
		if (c=='6') {led_dsp[pos] = SIX; return;}
 8001d78:	1dfb      	adds	r3, r7, #7
 8001d7a:	781b      	ldrb	r3, [r3, #0]
 8001d7c:	2b36      	cmp	r3, #54	; 0x36
 8001d7e:	d106      	bne.n	8001d8e <displayChar+0xd6>
 8001d80:	1dbb      	adds	r3, r7, #6
 8001d82:	781a      	ldrb	r2, [r3, #0]
 8001d84:	49a8      	ldr	r1, [pc, #672]	; (8002028 <displayChar+0x370>)
 8001d86:	4ba2      	ldr	r3, [pc, #648]	; (8002010 <displayChar+0x358>)
 8001d88:	0052      	lsls	r2, r2, #1
 8001d8a:	52d1      	strh	r1, [r2, r3]
 8001d8c:	e18f      	b.n	80020ae <displayChar+0x3f6>
		if (c=='7') {led_dsp[pos] = SEVEN; return;}
 8001d8e:	1dfb      	adds	r3, r7, #7
 8001d90:	781b      	ldrb	r3, [r3, #0]
 8001d92:	2b37      	cmp	r3, #55	; 0x37
 8001d94:	d106      	bne.n	8001da4 <displayChar+0xec>
 8001d96:	1dbb      	adds	r3, r7, #6
 8001d98:	781a      	ldrb	r2, [r3, #0]
 8001d9a:	49a4      	ldr	r1, [pc, #656]	; (800202c <displayChar+0x374>)
 8001d9c:	4b9c      	ldr	r3, [pc, #624]	; (8002010 <displayChar+0x358>)
 8001d9e:	0052      	lsls	r2, r2, #1
 8001da0:	52d1      	strh	r1, [r2, r3]
 8001da2:	e184      	b.n	80020ae <displayChar+0x3f6>
		if (c=='8') {led_dsp[pos] = EIGHT; return;}
 8001da4:	1dfb      	adds	r3, r7, #7
 8001da6:	781b      	ldrb	r3, [r3, #0]
 8001da8:	2b38      	cmp	r3, #56	; 0x38
 8001daa:	d106      	bne.n	8001dba <displayChar+0x102>
 8001dac:	1dbb      	adds	r3, r7, #6
 8001dae:	781a      	ldrb	r2, [r3, #0]
 8001db0:	499f      	ldr	r1, [pc, #636]	; (8002030 <displayChar+0x378>)
 8001db2:	4b97      	ldr	r3, [pc, #604]	; (8002010 <displayChar+0x358>)
 8001db4:	0052      	lsls	r2, r2, #1
 8001db6:	52d1      	strh	r1, [r2, r3]
 8001db8:	e179      	b.n	80020ae <displayChar+0x3f6>
		if (c=='9') {led_dsp[pos] = NINE; return;}
 8001dba:	1dfb      	adds	r3, r7, #7
 8001dbc:	781b      	ldrb	r3, [r3, #0]
 8001dbe:	2b39      	cmp	r3, #57	; 0x39
 8001dc0:	d106      	bne.n	8001dd0 <displayChar+0x118>
 8001dc2:	1dbb      	adds	r3, r7, #6
 8001dc4:	781a      	ldrb	r2, [r3, #0]
 8001dc6:	499b      	ldr	r1, [pc, #620]	; (8002034 <displayChar+0x37c>)
 8001dc8:	4b91      	ldr	r3, [pc, #580]	; (8002010 <displayChar+0x358>)
 8001dca:	0052      	lsls	r2, r2, #1
 8001dcc:	52d1      	strh	r1, [r2, r3]
 8001dce:	e16e      	b.n	80020ae <displayChar+0x3f6>

		if (c==' ') {led_dsp[pos] = SPACE; return;}
 8001dd0:	1dfb      	adds	r3, r7, #7
 8001dd2:	781b      	ldrb	r3, [r3, #0]
 8001dd4:	2b20      	cmp	r3, #32
 8001dd6:	d106      	bne.n	8001de6 <displayChar+0x12e>
 8001dd8:	1dbb      	adds	r3, r7, #6
 8001dda:	781a      	ldrb	r2, [r3, #0]
 8001ddc:	4996      	ldr	r1, [pc, #600]	; (8002038 <displayChar+0x380>)
 8001dde:	4b8c      	ldr	r3, [pc, #560]	; (8002010 <displayChar+0x358>)
 8001de0:	0052      	lsls	r2, r2, #1
 8001de2:	52d1      	strh	r1, [r2, r3]
 8001de4:	e163      	b.n	80020ae <displayChar+0x3f6>

		if (c=='a') {led_dsp[pos] = A; return;}
 8001de6:	1dfb      	adds	r3, r7, #7
 8001de8:	781b      	ldrb	r3, [r3, #0]
 8001dea:	2b61      	cmp	r3, #97	; 0x61
 8001dec:	d106      	bne.n	8001dfc <displayChar+0x144>
 8001dee:	1dbb      	adds	r3, r7, #6
 8001df0:	781a      	ldrb	r2, [r3, #0]
 8001df2:	4992      	ldr	r1, [pc, #584]	; (800203c <displayChar+0x384>)
 8001df4:	4b86      	ldr	r3, [pc, #536]	; (8002010 <displayChar+0x358>)
 8001df6:	0052      	lsls	r2, r2, #1
 8001df8:	52d1      	strh	r1, [r2, r3]
 8001dfa:	e158      	b.n	80020ae <displayChar+0x3f6>
		if (c=='b') {led_dsp[pos] = B; return;}
 8001dfc:	1dfb      	adds	r3, r7, #7
 8001dfe:	781b      	ldrb	r3, [r3, #0]
 8001e00:	2b62      	cmp	r3, #98	; 0x62
 8001e02:	d106      	bne.n	8001e12 <displayChar+0x15a>
 8001e04:	1dbb      	adds	r3, r7, #6
 8001e06:	781a      	ldrb	r2, [r3, #0]
 8001e08:	498d      	ldr	r1, [pc, #564]	; (8002040 <displayChar+0x388>)
 8001e0a:	4b81      	ldr	r3, [pc, #516]	; (8002010 <displayChar+0x358>)
 8001e0c:	0052      	lsls	r2, r2, #1
 8001e0e:	52d1      	strh	r1, [r2, r3]
 8001e10:	e14d      	b.n	80020ae <displayChar+0x3f6>
		if (c=='c') {led_dsp[pos] = C; return;}
 8001e12:	1dfb      	adds	r3, r7, #7
 8001e14:	781b      	ldrb	r3, [r3, #0]
 8001e16:	2b63      	cmp	r3, #99	; 0x63
 8001e18:	d106      	bne.n	8001e28 <displayChar+0x170>
 8001e1a:	1dbb      	adds	r3, r7, #6
 8001e1c:	781a      	ldrb	r2, [r3, #0]
 8001e1e:	4989      	ldr	r1, [pc, #548]	; (8002044 <displayChar+0x38c>)
 8001e20:	4b7b      	ldr	r3, [pc, #492]	; (8002010 <displayChar+0x358>)
 8001e22:	0052      	lsls	r2, r2, #1
 8001e24:	52d1      	strh	r1, [r2, r3]
 8001e26:	e142      	b.n	80020ae <displayChar+0x3f6>
		if (c=='d') {led_dsp[pos] = D; return;}
 8001e28:	1dfb      	adds	r3, r7, #7
 8001e2a:	781b      	ldrb	r3, [r3, #0]
 8001e2c:	2b64      	cmp	r3, #100	; 0x64
 8001e2e:	d106      	bne.n	8001e3e <displayChar+0x186>
 8001e30:	1dbb      	adds	r3, r7, #6
 8001e32:	781a      	ldrb	r2, [r3, #0]
 8001e34:	4984      	ldr	r1, [pc, #528]	; (8002048 <displayChar+0x390>)
 8001e36:	4b76      	ldr	r3, [pc, #472]	; (8002010 <displayChar+0x358>)
 8001e38:	0052      	lsls	r2, r2, #1
 8001e3a:	52d1      	strh	r1, [r2, r3]
 8001e3c:	e137      	b.n	80020ae <displayChar+0x3f6>
		if (c=='e') {led_dsp[pos] = E; return;}
 8001e3e:	1dfb      	adds	r3, r7, #7
 8001e40:	781b      	ldrb	r3, [r3, #0]
 8001e42:	2b65      	cmp	r3, #101	; 0x65
 8001e44:	d106      	bne.n	8001e54 <displayChar+0x19c>
 8001e46:	1dbb      	adds	r3, r7, #6
 8001e48:	781a      	ldrb	r2, [r3, #0]
 8001e4a:	4980      	ldr	r1, [pc, #512]	; (800204c <displayChar+0x394>)
 8001e4c:	4b70      	ldr	r3, [pc, #448]	; (8002010 <displayChar+0x358>)
 8001e4e:	0052      	lsls	r2, r2, #1
 8001e50:	52d1      	strh	r1, [r2, r3]
 8001e52:	e12c      	b.n	80020ae <displayChar+0x3f6>
		if (c=='f') {led_dsp[pos] = F; return;}
 8001e54:	1dfb      	adds	r3, r7, #7
 8001e56:	781b      	ldrb	r3, [r3, #0]
 8001e58:	2b66      	cmp	r3, #102	; 0x66
 8001e5a:	d106      	bne.n	8001e6a <displayChar+0x1b2>
 8001e5c:	1dbb      	adds	r3, r7, #6
 8001e5e:	781a      	ldrb	r2, [r3, #0]
 8001e60:	497b      	ldr	r1, [pc, #492]	; (8002050 <displayChar+0x398>)
 8001e62:	4b6b      	ldr	r3, [pc, #428]	; (8002010 <displayChar+0x358>)
 8001e64:	0052      	lsls	r2, r2, #1
 8001e66:	52d1      	strh	r1, [r2, r3]
 8001e68:	e121      	b.n	80020ae <displayChar+0x3f6>
		if (c=='g') {led_dsp[pos] = G; return;}
 8001e6a:	1dfb      	adds	r3, r7, #7
 8001e6c:	781b      	ldrb	r3, [r3, #0]
 8001e6e:	2b67      	cmp	r3, #103	; 0x67
 8001e70:	d106      	bne.n	8001e80 <displayChar+0x1c8>
 8001e72:	1dbb      	adds	r3, r7, #6
 8001e74:	781a      	ldrb	r2, [r3, #0]
 8001e76:	4977      	ldr	r1, [pc, #476]	; (8002054 <displayChar+0x39c>)
 8001e78:	4b65      	ldr	r3, [pc, #404]	; (8002010 <displayChar+0x358>)
 8001e7a:	0052      	lsls	r2, r2, #1
 8001e7c:	52d1      	strh	r1, [r2, r3]
 8001e7e:	e116      	b.n	80020ae <displayChar+0x3f6>
		if (c=='h') {led_dsp[pos] = H; return;}
 8001e80:	1dfb      	adds	r3, r7, #7
 8001e82:	781b      	ldrb	r3, [r3, #0]
 8001e84:	2b68      	cmp	r3, #104	; 0x68
 8001e86:	d106      	bne.n	8001e96 <displayChar+0x1de>
 8001e88:	1dbb      	adds	r3, r7, #6
 8001e8a:	781a      	ldrb	r2, [r3, #0]
 8001e8c:	4972      	ldr	r1, [pc, #456]	; (8002058 <displayChar+0x3a0>)
 8001e8e:	4b60      	ldr	r3, [pc, #384]	; (8002010 <displayChar+0x358>)
 8001e90:	0052      	lsls	r2, r2, #1
 8001e92:	52d1      	strh	r1, [r2, r3]
 8001e94:	e10b      	b.n	80020ae <displayChar+0x3f6>
		if (c=='i') {led_dsp[pos] = I; return;}
 8001e96:	1dfb      	adds	r3, r7, #7
 8001e98:	781b      	ldrb	r3, [r3, #0]
 8001e9a:	2b69      	cmp	r3, #105	; 0x69
 8001e9c:	d106      	bne.n	8001eac <displayChar+0x1f4>
 8001e9e:	1dbb      	adds	r3, r7, #6
 8001ea0:	781a      	ldrb	r2, [r3, #0]
 8001ea2:	496e      	ldr	r1, [pc, #440]	; (800205c <displayChar+0x3a4>)
 8001ea4:	4b5a      	ldr	r3, [pc, #360]	; (8002010 <displayChar+0x358>)
 8001ea6:	0052      	lsls	r2, r2, #1
 8001ea8:	52d1      	strh	r1, [r2, r3]
 8001eaa:	e100      	b.n	80020ae <displayChar+0x3f6>
		if (c=='j') {led_dsp[pos] = J; return;}
 8001eac:	1dfb      	adds	r3, r7, #7
 8001eae:	781b      	ldrb	r3, [r3, #0]
 8001eb0:	2b6a      	cmp	r3, #106	; 0x6a
 8001eb2:	d106      	bne.n	8001ec2 <displayChar+0x20a>
 8001eb4:	1dbb      	adds	r3, r7, #6
 8001eb6:	781a      	ldrb	r2, [r3, #0]
 8001eb8:	4969      	ldr	r1, [pc, #420]	; (8002060 <displayChar+0x3a8>)
 8001eba:	4b55      	ldr	r3, [pc, #340]	; (8002010 <displayChar+0x358>)
 8001ebc:	0052      	lsls	r2, r2, #1
 8001ebe:	52d1      	strh	r1, [r2, r3]
 8001ec0:	e0f5      	b.n	80020ae <displayChar+0x3f6>
		if (c=='k') {led_dsp[pos] = K; return;}
 8001ec2:	1dfb      	adds	r3, r7, #7
 8001ec4:	781b      	ldrb	r3, [r3, #0]
 8001ec6:	2b6b      	cmp	r3, #107	; 0x6b
 8001ec8:	d106      	bne.n	8001ed8 <displayChar+0x220>
 8001eca:	1dbb      	adds	r3, r7, #6
 8001ecc:	781a      	ldrb	r2, [r3, #0]
 8001ece:	4965      	ldr	r1, [pc, #404]	; (8002064 <displayChar+0x3ac>)
 8001ed0:	4b4f      	ldr	r3, [pc, #316]	; (8002010 <displayChar+0x358>)
 8001ed2:	0052      	lsls	r2, r2, #1
 8001ed4:	52d1      	strh	r1, [r2, r3]
 8001ed6:	e0ea      	b.n	80020ae <displayChar+0x3f6>
		if (c=='l') {led_dsp[pos] = L; return;}
 8001ed8:	1dfb      	adds	r3, r7, #7
 8001eda:	781b      	ldrb	r3, [r3, #0]
 8001edc:	2b6c      	cmp	r3, #108	; 0x6c
 8001ede:	d106      	bne.n	8001eee <displayChar+0x236>
 8001ee0:	1dbb      	adds	r3, r7, #6
 8001ee2:	781a      	ldrb	r2, [r3, #0]
 8001ee4:	4960      	ldr	r1, [pc, #384]	; (8002068 <displayChar+0x3b0>)
 8001ee6:	4b4a      	ldr	r3, [pc, #296]	; (8002010 <displayChar+0x358>)
 8001ee8:	0052      	lsls	r2, r2, #1
 8001eea:	52d1      	strh	r1, [r2, r3]
 8001eec:	e0df      	b.n	80020ae <displayChar+0x3f6>
		if (c=='m') {led_dsp[pos] = M; return;}
 8001eee:	1dfb      	adds	r3, r7, #7
 8001ef0:	781b      	ldrb	r3, [r3, #0]
 8001ef2:	2b6d      	cmp	r3, #109	; 0x6d
 8001ef4:	d106      	bne.n	8001f04 <displayChar+0x24c>
 8001ef6:	1dbb      	adds	r3, r7, #6
 8001ef8:	781a      	ldrb	r2, [r3, #0]
 8001efa:	495c      	ldr	r1, [pc, #368]	; (800206c <displayChar+0x3b4>)
 8001efc:	4b44      	ldr	r3, [pc, #272]	; (8002010 <displayChar+0x358>)
 8001efe:	0052      	lsls	r2, r2, #1
 8001f00:	52d1      	strh	r1, [r2, r3]
 8001f02:	e0d4      	b.n	80020ae <displayChar+0x3f6>
		if (c=='n') {led_dsp[pos] = N; return;}
 8001f04:	1dfb      	adds	r3, r7, #7
 8001f06:	781b      	ldrb	r3, [r3, #0]
 8001f08:	2b6e      	cmp	r3, #110	; 0x6e
 8001f0a:	d106      	bne.n	8001f1a <displayChar+0x262>
 8001f0c:	1dbb      	adds	r3, r7, #6
 8001f0e:	781a      	ldrb	r2, [r3, #0]
 8001f10:	4957      	ldr	r1, [pc, #348]	; (8002070 <displayChar+0x3b8>)
 8001f12:	4b3f      	ldr	r3, [pc, #252]	; (8002010 <displayChar+0x358>)
 8001f14:	0052      	lsls	r2, r2, #1
 8001f16:	52d1      	strh	r1, [r2, r3]
 8001f18:	e0c9      	b.n	80020ae <displayChar+0x3f6>
		if (c=='o') {led_dsp[pos] = O; return;}
 8001f1a:	1dfb      	adds	r3, r7, #7
 8001f1c:	781b      	ldrb	r3, [r3, #0]
 8001f1e:	2b6f      	cmp	r3, #111	; 0x6f
 8001f20:	d106      	bne.n	8001f30 <displayChar+0x278>
 8001f22:	1dbb      	adds	r3, r7, #6
 8001f24:	781a      	ldrb	r2, [r3, #0]
 8001f26:	4939      	ldr	r1, [pc, #228]	; (800200c <displayChar+0x354>)
 8001f28:	4b39      	ldr	r3, [pc, #228]	; (8002010 <displayChar+0x358>)
 8001f2a:	0052      	lsls	r2, r2, #1
 8001f2c:	52d1      	strh	r1, [r2, r3]
 8001f2e:	e0be      	b.n	80020ae <displayChar+0x3f6>
		if (c=='p') {led_dsp[pos] = P; return;}
 8001f30:	1dfb      	adds	r3, r7, #7
 8001f32:	781b      	ldrb	r3, [r3, #0]
 8001f34:	2b70      	cmp	r3, #112	; 0x70
 8001f36:	d106      	bne.n	8001f46 <displayChar+0x28e>
 8001f38:	1dbb      	adds	r3, r7, #6
 8001f3a:	781a      	ldrb	r2, [r3, #0]
 8001f3c:	494d      	ldr	r1, [pc, #308]	; (8002074 <displayChar+0x3bc>)
 8001f3e:	4b34      	ldr	r3, [pc, #208]	; (8002010 <displayChar+0x358>)
 8001f40:	0052      	lsls	r2, r2, #1
 8001f42:	52d1      	strh	r1, [r2, r3]
 8001f44:	e0b3      	b.n	80020ae <displayChar+0x3f6>
		if (c=='q') {led_dsp[pos] = Q; return;}
 8001f46:	1dfb      	adds	r3, r7, #7
 8001f48:	781b      	ldrb	r3, [r3, #0]
 8001f4a:	2b71      	cmp	r3, #113	; 0x71
 8001f4c:	d106      	bne.n	8001f5c <displayChar+0x2a4>
 8001f4e:	1dbb      	adds	r3, r7, #6
 8001f50:	781a      	ldrb	r2, [r3, #0]
 8001f52:	4949      	ldr	r1, [pc, #292]	; (8002078 <displayChar+0x3c0>)
 8001f54:	4b2e      	ldr	r3, [pc, #184]	; (8002010 <displayChar+0x358>)
 8001f56:	0052      	lsls	r2, r2, #1
 8001f58:	52d1      	strh	r1, [r2, r3]
 8001f5a:	e0a8      	b.n	80020ae <displayChar+0x3f6>
		if (c=='r') {led_dsp[pos] = R; return;}
 8001f5c:	1dfb      	adds	r3, r7, #7
 8001f5e:	781b      	ldrb	r3, [r3, #0]
 8001f60:	2b72      	cmp	r3, #114	; 0x72
 8001f62:	d106      	bne.n	8001f72 <displayChar+0x2ba>
 8001f64:	1dbb      	adds	r3, r7, #6
 8001f66:	781a      	ldrb	r2, [r3, #0]
 8001f68:	4944      	ldr	r1, [pc, #272]	; (800207c <displayChar+0x3c4>)
 8001f6a:	4b29      	ldr	r3, [pc, #164]	; (8002010 <displayChar+0x358>)
 8001f6c:	0052      	lsls	r2, r2, #1
 8001f6e:	52d1      	strh	r1, [r2, r3]
 8001f70:	e09d      	b.n	80020ae <displayChar+0x3f6>
		if (c=='s') {led_dsp[pos] = S; return;}
 8001f72:	1dfb      	adds	r3, r7, #7
 8001f74:	781b      	ldrb	r3, [r3, #0]
 8001f76:	2b73      	cmp	r3, #115	; 0x73
 8001f78:	d106      	bne.n	8001f88 <displayChar+0x2d0>
 8001f7a:	1dbb      	adds	r3, r7, #6
 8001f7c:	781a      	ldrb	r2, [r3, #0]
 8001f7e:	4929      	ldr	r1, [pc, #164]	; (8002024 <displayChar+0x36c>)
 8001f80:	4b23      	ldr	r3, [pc, #140]	; (8002010 <displayChar+0x358>)
 8001f82:	0052      	lsls	r2, r2, #1
 8001f84:	52d1      	strh	r1, [r2, r3]
 8001f86:	e092      	b.n	80020ae <displayChar+0x3f6>
		if (c=='t') {led_dsp[pos] = T; return;}
 8001f88:	1dfb      	adds	r3, r7, #7
 8001f8a:	781b      	ldrb	r3, [r3, #0]
 8001f8c:	2b74      	cmp	r3, #116	; 0x74
 8001f8e:	d106      	bne.n	8001f9e <displayChar+0x2e6>
 8001f90:	1dbb      	adds	r3, r7, #6
 8001f92:	781a      	ldrb	r2, [r3, #0]
 8001f94:	493a      	ldr	r1, [pc, #232]	; (8002080 <displayChar+0x3c8>)
 8001f96:	4b1e      	ldr	r3, [pc, #120]	; (8002010 <displayChar+0x358>)
 8001f98:	0052      	lsls	r2, r2, #1
 8001f9a:	52d1      	strh	r1, [r2, r3]
 8001f9c:	e087      	b.n	80020ae <displayChar+0x3f6>
		if (c=='u') {led_dsp[pos] = U; return;}
 8001f9e:	1dfb      	adds	r3, r7, #7
 8001fa0:	781b      	ldrb	r3, [r3, #0]
 8001fa2:	2b75      	cmp	r3, #117	; 0x75
 8001fa4:	d106      	bne.n	8001fb4 <displayChar+0x2fc>
 8001fa6:	1dbb      	adds	r3, r7, #6
 8001fa8:	781a      	ldrb	r2, [r3, #0]
 8001faa:	4936      	ldr	r1, [pc, #216]	; (8002084 <displayChar+0x3cc>)
 8001fac:	4b18      	ldr	r3, [pc, #96]	; (8002010 <displayChar+0x358>)
 8001fae:	0052      	lsls	r2, r2, #1
 8001fb0:	52d1      	strh	r1, [r2, r3]
 8001fb2:	e07c      	b.n	80020ae <displayChar+0x3f6>
		if (c=='w') {led_dsp[pos] = W; return;}
 8001fb4:	1dfb      	adds	r3, r7, #7
 8001fb6:	781b      	ldrb	r3, [r3, #0]
 8001fb8:	2b77      	cmp	r3, #119	; 0x77
 8001fba:	d106      	bne.n	8001fca <displayChar+0x312>
 8001fbc:	1dbb      	adds	r3, r7, #6
 8001fbe:	781a      	ldrb	r2, [r3, #0]
 8001fc0:	4931      	ldr	r1, [pc, #196]	; (8002088 <displayChar+0x3d0>)
 8001fc2:	4b13      	ldr	r3, [pc, #76]	; (8002010 <displayChar+0x358>)
 8001fc4:	0052      	lsls	r2, r2, #1
 8001fc6:	52d1      	strh	r1, [r2, r3]
 8001fc8:	e071      	b.n	80020ae <displayChar+0x3f6>
		if (c=='v') {led_dsp[pos] = V; return;}
 8001fca:	1dfb      	adds	r3, r7, #7
 8001fcc:	781b      	ldrb	r3, [r3, #0]
 8001fce:	2b76      	cmp	r3, #118	; 0x76
 8001fd0:	d106      	bne.n	8001fe0 <displayChar+0x328>
 8001fd2:	1dbb      	adds	r3, r7, #6
 8001fd4:	781a      	ldrb	r2, [r3, #0]
 8001fd6:	492d      	ldr	r1, [pc, #180]	; (800208c <displayChar+0x3d4>)
 8001fd8:	4b0d      	ldr	r3, [pc, #52]	; (8002010 <displayChar+0x358>)
 8001fda:	0052      	lsls	r2, r2, #1
 8001fdc:	52d1      	strh	r1, [r2, r3]
 8001fde:	e066      	b.n	80020ae <displayChar+0x3f6>
		if (c=='x') {led_dsp[pos] = X; return;}
 8001fe0:	1dfb      	adds	r3, r7, #7
 8001fe2:	781b      	ldrb	r3, [r3, #0]
 8001fe4:	2b78      	cmp	r3, #120	; 0x78
 8001fe6:	d106      	bne.n	8001ff6 <displayChar+0x33e>
 8001fe8:	1dbb      	adds	r3, r7, #6
 8001fea:	781a      	ldrb	r2, [r3, #0]
 8001fec:	4928      	ldr	r1, [pc, #160]	; (8002090 <displayChar+0x3d8>)
 8001fee:	4b08      	ldr	r3, [pc, #32]	; (8002010 <displayChar+0x358>)
 8001ff0:	0052      	lsls	r2, r2, #1
 8001ff2:	52d1      	strh	r1, [r2, r3]
 8001ff4:	e05b      	b.n	80020ae <displayChar+0x3f6>
		if (c=='y') {led_dsp[pos] = Y; return;}
 8001ff6:	1dfb      	adds	r3, r7, #7
 8001ff8:	781b      	ldrb	r3, [r3, #0]
 8001ffa:	2b79      	cmp	r3, #121	; 0x79
 8001ffc:	d14c      	bne.n	8002098 <displayChar+0x3e0>
 8001ffe:	1dbb      	adds	r3, r7, #6
 8002000:	781a      	ldrb	r2, [r3, #0]
 8002002:	4924      	ldr	r1, [pc, #144]	; (8002094 <displayChar+0x3dc>)
 8002004:	4b02      	ldr	r3, [pc, #8]	; (8002010 <displayChar+0x358>)
 8002006:	0052      	lsls	r2, r2, #1
 8002008:	52d1      	strh	r1, [r2, r3]
 800200a:	e050      	b.n	80020ae <displayChar+0x3f6>
 800200c:	00007fc0 	.word	0x00007fc0
 8002010:	2000004c 	.word	0x2000004c
 8002014:	00007ff9 	.word	0x00007ff9
 8002018:	00006ee4 	.word	0x00006ee4
 800201c:	00006ef0 	.word	0x00006ef0
 8002020:	00006ed9 	.word	0x00006ed9
 8002024:	00006ed2 	.word	0x00006ed2
 8002028:	00006ec2 	.word	0x00006ec2
 800202c:	00007ff8 	.word	0x00007ff8
 8002030:	00006ec0 	.word	0x00006ec0
 8002034:	00006ed0 	.word	0x00006ed0
 8002038:	00007fff 	.word	0x00007fff
 800203c:	00006ec8 	.word	0x00006ec8
 8002040:	00007ab0 	.word	0x00007ab0
 8002044:	00007fc6 	.word	0x00007fc6
 8002048:	00007bb0 	.word	0x00007bb0
 800204c:	00006ec6 	.word	0x00006ec6
 8002050:	00006ece 	.word	0x00006ece
 8002054:	00007ec2 	.word	0x00007ec2
 8002058:	00006ec9 	.word	0x00006ec9
 800205c:	00007bbf 	.word	0x00007bbf
 8002060:	00007fe1 	.word	0x00007fe1
 8002064:	00006d4f 	.word	0x00006d4f
 8002068:	00007fc7 	.word	0x00007fc7
 800206c:	00003f49 	.word	0x00003f49
 8002070:	00003dc9 	.word	0x00003dc9
 8002074:	00006ecc 	.word	0x00006ecc
 8002078:	00007dc0 	.word	0x00007dc0
 800207c:	00006ccc 	.word	0x00006ccc
 8002080:	00007bbe 	.word	0x00007bbe
 8002084:	00007fc1 	.word	0x00007fc1
 8002088:	000075c9 	.word	0x000075c9
 800208c:	0000774f 	.word	0x0000774f
 8002090:	0000357f 	.word	0x0000357f
 8002094:	00003b7f 	.word	0x00003b7f
		if (c=='z') {led_dsp[pos] = Z; return;}
 8002098:	1dfb      	adds	r3, r7, #7
 800209a:	781b      	ldrb	r3, [r3, #0]
 800209c:	2b7a      	cmp	r3, #122	; 0x7a
 800209e:	d106      	bne.n	80020ae <displayChar+0x3f6>
 80020a0:	1dbb      	adds	r3, r7, #6
 80020a2:	781a      	ldrb	r2, [r3, #0]
 80020a4:	4903      	ldr	r1, [pc, #12]	; (80020b4 <displayChar+0x3fc>)
 80020a6:	4b04      	ldr	r3, [pc, #16]	; (80020b8 <displayChar+0x400>)
 80020a8:	0052      	lsls	r2, r2, #1
 80020aa:	52d1      	strh	r1, [r2, r3]
 80020ac:	46c0      	nop			; (mov r8, r8)
	}
}
 80020ae:	46bd      	mov	sp, r7
 80020b0:	b002      	add	sp, #8
 80020b2:	bd80      	pop	{r7, pc}
 80020b4:	0000f776 	.word	0x0000f776
 80020b8:	2000004c 	.word	0x2000004c

080020bc <setDigit>:


void setDigit(uint8_t digit) {
 80020bc:	b580      	push	{r7, lr}
 80020be:	b082      	sub	sp, #8
 80020c0:	af00      	add	r7, sp, #0
 80020c2:	0002      	movs	r2, r0
 80020c4:	1dfb      	adds	r3, r7, #7
 80020c6:	701a      	strb	r2, [r3, #0]
	switch(digit) {
 80020c8:	1dfb      	adds	r3, r7, #7
 80020ca:	781b      	ldrb	r3, [r3, #0]
 80020cc:	2b05      	cmp	r3, #5
 80020ce:	d900      	bls.n	80020d2 <setDigit+0x16>
 80020d0:	e07c      	b.n	80021cc <setDigit+0x110>
 80020d2:	009a      	lsls	r2, r3, #2
 80020d4:	4b3f      	ldr	r3, [pc, #252]	; (80021d4 <setDigit+0x118>)
 80020d6:	18d3      	adds	r3, r2, r3
 80020d8:	681b      	ldr	r3, [r3, #0]
 80020da:	469f      	mov	pc, r3
		case 0:
			D0_SET;
 80020dc:	4b3e      	ldr	r3, [pc, #248]	; (80021d8 <setDigit+0x11c>)
 80020de:	2280      	movs	r2, #128	; 0x80
 80020e0:	03d2      	lsls	r2, r2, #15
 80020e2:	619a      	str	r2, [r3, #24]
			D1_CLR;
 80020e4:	4b3c      	ldr	r3, [pc, #240]	; (80021d8 <setDigit+0x11c>)
 80020e6:	2280      	movs	r2, #128	; 0x80
 80020e8:	619a      	str	r2, [r3, #24]
			D2_CLR;
 80020ea:	4b3c      	ldr	r3, [pc, #240]	; (80021dc <setDigit+0x120>)
 80020ec:	2201      	movs	r2, #1
 80020ee:	619a      	str	r2, [r3, #24]
			D3_CLR;
 80020f0:	4b3a      	ldr	r3, [pc, #232]	; (80021dc <setDigit+0x120>)
 80020f2:	2202      	movs	r2, #2
 80020f4:	619a      	str	r2, [r3, #24]
			D4_CLR;
 80020f6:	4b39      	ldr	r3, [pc, #228]	; (80021dc <setDigit+0x120>)
 80020f8:	2204      	movs	r2, #4
 80020fa:	619a      	str	r2, [r3, #24]
			D5_CLR;
 80020fc:	4b37      	ldr	r3, [pc, #220]	; (80021dc <setDigit+0x120>)
 80020fe:	2208      	movs	r2, #8
 8002100:	619a      	str	r2, [r3, #24]
			break;
 8002102:	e063      	b.n	80021cc <setDigit+0x110>
		case 1:
			D0_CLR;
 8002104:	4b34      	ldr	r3, [pc, #208]	; (80021d8 <setDigit+0x11c>)
 8002106:	2240      	movs	r2, #64	; 0x40
 8002108:	619a      	str	r2, [r3, #24]
			D1_SET;
 800210a:	4b33      	ldr	r3, [pc, #204]	; (80021d8 <setDigit+0x11c>)
 800210c:	2280      	movs	r2, #128	; 0x80
 800210e:	0412      	lsls	r2, r2, #16
 8002110:	619a      	str	r2, [r3, #24]
			D2_CLR;
 8002112:	4b32      	ldr	r3, [pc, #200]	; (80021dc <setDigit+0x120>)
 8002114:	2201      	movs	r2, #1
 8002116:	619a      	str	r2, [r3, #24]
			D3_CLR;
 8002118:	4b30      	ldr	r3, [pc, #192]	; (80021dc <setDigit+0x120>)
 800211a:	2202      	movs	r2, #2
 800211c:	619a      	str	r2, [r3, #24]
			D4_CLR;
 800211e:	4b2f      	ldr	r3, [pc, #188]	; (80021dc <setDigit+0x120>)
 8002120:	2204      	movs	r2, #4
 8002122:	619a      	str	r2, [r3, #24]
			D5_CLR;
 8002124:	4b2d      	ldr	r3, [pc, #180]	; (80021dc <setDigit+0x120>)
 8002126:	2208      	movs	r2, #8
 8002128:	619a      	str	r2, [r3, #24]
			break;
 800212a:	e04f      	b.n	80021cc <setDigit+0x110>
		case 2:
			D0_CLR;
 800212c:	4b2a      	ldr	r3, [pc, #168]	; (80021d8 <setDigit+0x11c>)
 800212e:	2240      	movs	r2, #64	; 0x40
 8002130:	619a      	str	r2, [r3, #24]
			D1_CLR;
 8002132:	4b29      	ldr	r3, [pc, #164]	; (80021d8 <setDigit+0x11c>)
 8002134:	2280      	movs	r2, #128	; 0x80
 8002136:	619a      	str	r2, [r3, #24]
			D2_SET;
 8002138:	4b28      	ldr	r3, [pc, #160]	; (80021dc <setDigit+0x120>)
 800213a:	2280      	movs	r2, #128	; 0x80
 800213c:	0252      	lsls	r2, r2, #9
 800213e:	619a      	str	r2, [r3, #24]
			D3_CLR;
 8002140:	4b26      	ldr	r3, [pc, #152]	; (80021dc <setDigit+0x120>)
 8002142:	2202      	movs	r2, #2
 8002144:	619a      	str	r2, [r3, #24]
			D4_CLR;
 8002146:	4b25      	ldr	r3, [pc, #148]	; (80021dc <setDigit+0x120>)
 8002148:	2204      	movs	r2, #4
 800214a:	619a      	str	r2, [r3, #24]
			D5_CLR;
 800214c:	4b23      	ldr	r3, [pc, #140]	; (80021dc <setDigit+0x120>)
 800214e:	2208      	movs	r2, #8
 8002150:	619a      	str	r2, [r3, #24]
			break;
 8002152:	e03b      	b.n	80021cc <setDigit+0x110>
		case 3:
			D0_CLR;
 8002154:	4b20      	ldr	r3, [pc, #128]	; (80021d8 <setDigit+0x11c>)
 8002156:	2240      	movs	r2, #64	; 0x40
 8002158:	619a      	str	r2, [r3, #24]
			D1_CLR;
 800215a:	4b1f      	ldr	r3, [pc, #124]	; (80021d8 <setDigit+0x11c>)
 800215c:	2280      	movs	r2, #128	; 0x80
 800215e:	619a      	str	r2, [r3, #24]
			D2_CLR;
 8002160:	4b1e      	ldr	r3, [pc, #120]	; (80021dc <setDigit+0x120>)
 8002162:	2201      	movs	r2, #1
 8002164:	619a      	str	r2, [r3, #24]
			D3_SET;
 8002166:	4b1d      	ldr	r3, [pc, #116]	; (80021dc <setDigit+0x120>)
 8002168:	2280      	movs	r2, #128	; 0x80
 800216a:	0292      	lsls	r2, r2, #10
 800216c:	619a      	str	r2, [r3, #24]
			D4_CLR;
 800216e:	4b1b      	ldr	r3, [pc, #108]	; (80021dc <setDigit+0x120>)
 8002170:	2204      	movs	r2, #4
 8002172:	619a      	str	r2, [r3, #24]
			D5_CLR;
 8002174:	4b19      	ldr	r3, [pc, #100]	; (80021dc <setDigit+0x120>)
 8002176:	2208      	movs	r2, #8
 8002178:	619a      	str	r2, [r3, #24]
			break;
 800217a:	e027      	b.n	80021cc <setDigit+0x110>
		case 4:
			D0_CLR;
 800217c:	4b16      	ldr	r3, [pc, #88]	; (80021d8 <setDigit+0x11c>)
 800217e:	2240      	movs	r2, #64	; 0x40
 8002180:	619a      	str	r2, [r3, #24]
			D1_CLR;
 8002182:	4b15      	ldr	r3, [pc, #84]	; (80021d8 <setDigit+0x11c>)
 8002184:	2280      	movs	r2, #128	; 0x80
 8002186:	619a      	str	r2, [r3, #24]
			D2_CLR;
 8002188:	4b14      	ldr	r3, [pc, #80]	; (80021dc <setDigit+0x120>)
 800218a:	2201      	movs	r2, #1
 800218c:	619a      	str	r2, [r3, #24]
			D3_CLR;
 800218e:	4b13      	ldr	r3, [pc, #76]	; (80021dc <setDigit+0x120>)
 8002190:	2202      	movs	r2, #2
 8002192:	619a      	str	r2, [r3, #24]
			D4_SET;
 8002194:	4b11      	ldr	r3, [pc, #68]	; (80021dc <setDigit+0x120>)
 8002196:	2280      	movs	r2, #128	; 0x80
 8002198:	02d2      	lsls	r2, r2, #11
 800219a:	619a      	str	r2, [r3, #24]
			D5_CLR;
 800219c:	4b0f      	ldr	r3, [pc, #60]	; (80021dc <setDigit+0x120>)
 800219e:	2208      	movs	r2, #8
 80021a0:	619a      	str	r2, [r3, #24]
			break;
 80021a2:	e013      	b.n	80021cc <setDigit+0x110>
		case 5:
			D0_CLR;
 80021a4:	4b0c      	ldr	r3, [pc, #48]	; (80021d8 <setDigit+0x11c>)
 80021a6:	2240      	movs	r2, #64	; 0x40
 80021a8:	619a      	str	r2, [r3, #24]
			D1_CLR;
 80021aa:	4b0b      	ldr	r3, [pc, #44]	; (80021d8 <setDigit+0x11c>)
 80021ac:	2280      	movs	r2, #128	; 0x80
 80021ae:	619a      	str	r2, [r3, #24]
			D2_CLR;
 80021b0:	4b0a      	ldr	r3, [pc, #40]	; (80021dc <setDigit+0x120>)
 80021b2:	2201      	movs	r2, #1
 80021b4:	619a      	str	r2, [r3, #24]
			D3_CLR;
 80021b6:	4b09      	ldr	r3, [pc, #36]	; (80021dc <setDigit+0x120>)
 80021b8:	2202      	movs	r2, #2
 80021ba:	619a      	str	r2, [r3, #24]
			D4_CLR;
 80021bc:	4b07      	ldr	r3, [pc, #28]	; (80021dc <setDigit+0x120>)
 80021be:	2204      	movs	r2, #4
 80021c0:	619a      	str	r2, [r3, #24]
			D5_SET;
 80021c2:	4b06      	ldr	r3, [pc, #24]	; (80021dc <setDigit+0x120>)
 80021c4:	2280      	movs	r2, #128	; 0x80
 80021c6:	0312      	lsls	r2, r2, #12
 80021c8:	619a      	str	r2, [r3, #24]
			break;
 80021ca:	46c0      	nop			; (mov r8, r8)
	}
}
 80021cc:	46c0      	nop			; (mov r8, r8)
 80021ce:	46bd      	mov	sp, r7
 80021d0:	b002      	add	sp, #8
 80021d2:	bd80      	pop	{r7, pc}
 80021d4:	080033cc 	.word	0x080033cc
 80021d8:	50000800 	.word	0x50000800
 80021dc:	50000c00 	.word	0x50000c00

080021e0 <LEDClr>:

void LEDClr(void) {
 80021e0:	b580      	push	{r7, lr}
 80021e2:	af00      	add	r7, sp, #0
	displayChar(' ', 0);
 80021e4:	2100      	movs	r1, #0
 80021e6:	2020      	movs	r0, #32
 80021e8:	f7ff fd66 	bl	8001cb8 <displayChar>
	displayChar(' ', 1);
 80021ec:	2101      	movs	r1, #1
 80021ee:	2020      	movs	r0, #32
 80021f0:	f7ff fd62 	bl	8001cb8 <displayChar>
	displayChar(' ', 2);
 80021f4:	2102      	movs	r1, #2
 80021f6:	2020      	movs	r0, #32
 80021f8:	f7ff fd5e 	bl	8001cb8 <displayChar>
	displayChar(' ', 3);
 80021fc:	2103      	movs	r1, #3
 80021fe:	2020      	movs	r0, #32
 8002200:	f7ff fd5a 	bl	8001cb8 <displayChar>
	displayChar(' ', 4);
 8002204:	2104      	movs	r1, #4
 8002206:	2020      	movs	r0, #32
 8002208:	f7ff fd56 	bl	8001cb8 <displayChar>
	displayChar(' ', 5);
 800220c:	2105      	movs	r1, #5
 800220e:	2020      	movs	r0, #32
 8002210:	f7ff fd52 	bl	8001cb8 <displayChar>
}
 8002214:	46c0      	nop			; (mov r8, r8)
 8002216:	46bd      	mov	sp, r7
 8002218:	bd80      	pop	{r7, pc}
	...

0800221c <TIM15_IRQHandler>:

// LED display multiplexing
__attribute__((interrupt)) void TIM15_IRQHandler(void)	{
 800221c:	b580      	push	{r7, lr}
 800221e:	af00      	add	r7, sp, #0
	if (TIM15->SR & TIM_SR_CC1IF)	{
 8002220:	4b2e      	ldr	r3, [pc, #184]	; (80022dc <TIM15_IRQHandler+0xc0>)
 8002222:	691b      	ldr	r3, [r3, #16]
 8002224:	2202      	movs	r2, #2
 8002226:	4013      	ands	r3, r2
 8002228:	d054      	beq.n	80022d4 <TIM15_IRQHandler+0xb8>
		TIM15->SR &= ~TIM_SR_CC1IF;	// Clear flag
 800222a:	4b2c      	ldr	r3, [pc, #176]	; (80022dc <TIM15_IRQHandler+0xc0>)
 800222c:	691a      	ldr	r2, [r3, #16]
 800222e:	4b2b      	ldr	r3, [pc, #172]	; (80022dc <TIM15_IRQHandler+0xc0>)
 8002230:	2102      	movs	r1, #2
 8002232:	438a      	bics	r2, r1
 8002234:	611a      	str	r2, [r3, #16]
			static uint8_t pos = 0;
			if (pos>5) pos = 0;
 8002236:	4b2a      	ldr	r3, [pc, #168]	; (80022e0 <TIM15_IRQHandler+0xc4>)
 8002238:	781b      	ldrb	r3, [r3, #0]
 800223a:	2b05      	cmp	r3, #5
 800223c:	d902      	bls.n	8002244 <TIM15_IRQHandler+0x28>
 800223e:	4b28      	ldr	r3, [pc, #160]	; (80022e0 <TIM15_IRQHandler+0xc4>)
 8002240:	2200      	movs	r2, #0
 8002242:	701a      	strb	r2, [r3, #0]
			if (dot_enable[pos] == 1) led_dsp[pos] -= 8192;		// Subtract (ENABLE) the bit value responsible for DOT display (note: active low)
 8002244:	4b26      	ldr	r3, [pc, #152]	; (80022e0 <TIM15_IRQHandler+0xc4>)
 8002246:	781b      	ldrb	r3, [r3, #0]
 8002248:	001a      	movs	r2, r3
 800224a:	4b26      	ldr	r3, [pc, #152]	; (80022e4 <TIM15_IRQHandler+0xc8>)
 800224c:	5c9b      	ldrb	r3, [r3, r2]
 800224e:	b2db      	uxtb	r3, r3
 8002250:	2b01      	cmp	r3, #1
 8002252:	d10f      	bne.n	8002274 <TIM15_IRQHandler+0x58>
 8002254:	4b22      	ldr	r3, [pc, #136]	; (80022e0 <TIM15_IRQHandler+0xc4>)
 8002256:	781b      	ldrb	r3, [r3, #0]
 8002258:	001a      	movs	r2, r3
 800225a:	4b23      	ldr	r3, [pc, #140]	; (80022e8 <TIM15_IRQHandler+0xcc>)
 800225c:	0052      	lsls	r2, r2, #1
 800225e:	5ad3      	ldrh	r3, [r2, r3]
 8002260:	b29b      	uxth	r3, r3
 8002262:	4a1f      	ldr	r2, [pc, #124]	; (80022e0 <TIM15_IRQHandler+0xc4>)
 8002264:	7812      	ldrb	r2, [r2, #0]
 8002266:	4921      	ldr	r1, [pc, #132]	; (80022ec <TIM15_IRQHandler+0xd0>)
 8002268:	468c      	mov	ip, r1
 800226a:	4463      	add	r3, ip
 800226c:	b299      	uxth	r1, r3
 800226e:	4b1e      	ldr	r3, [pc, #120]	; (80022e8 <TIM15_IRQHandler+0xcc>)
 8002270:	0052      	lsls	r2, r2, #1
 8002272:	52d1      	strh	r1, [r2, r3]
			GPIOB->ODR = ((0x7FFF) & led_dsp[pos]);		// 0x7FFF masks the button value on PB15
 8002274:	4b1a      	ldr	r3, [pc, #104]	; (80022e0 <TIM15_IRQHandler+0xc4>)
 8002276:	781b      	ldrb	r3, [r3, #0]
 8002278:	001a      	movs	r2, r3
 800227a:	4b1b      	ldr	r3, [pc, #108]	; (80022e8 <TIM15_IRQHandler+0xcc>)
 800227c:	0052      	lsls	r2, r2, #1
 800227e:	5ad3      	ldrh	r3, [r2, r3]
 8002280:	b29b      	uxth	r3, r3
 8002282:	001a      	movs	r2, r3
 8002284:	4b1a      	ldr	r3, [pc, #104]	; (80022f0 <TIM15_IRQHandler+0xd4>)
 8002286:	0452      	lsls	r2, r2, #17
 8002288:	0c52      	lsrs	r2, r2, #17
 800228a:	615a      	str	r2, [r3, #20]
			if (dot_enable[pos] == 1) led_dsp[pos] += 8192;		// Add (DISABLE) the bit value responsible for DOT display (note: active low)
 800228c:	4b14      	ldr	r3, [pc, #80]	; (80022e0 <TIM15_IRQHandler+0xc4>)
 800228e:	781b      	ldrb	r3, [r3, #0]
 8002290:	001a      	movs	r2, r3
 8002292:	4b14      	ldr	r3, [pc, #80]	; (80022e4 <TIM15_IRQHandler+0xc8>)
 8002294:	5c9b      	ldrb	r3, [r3, r2]
 8002296:	b2db      	uxtb	r3, r3
 8002298:	2b01      	cmp	r3, #1
 800229a:	d110      	bne.n	80022be <TIM15_IRQHandler+0xa2>
 800229c:	4b10      	ldr	r3, [pc, #64]	; (80022e0 <TIM15_IRQHandler+0xc4>)
 800229e:	781b      	ldrb	r3, [r3, #0]
 80022a0:	001a      	movs	r2, r3
 80022a2:	4b11      	ldr	r3, [pc, #68]	; (80022e8 <TIM15_IRQHandler+0xcc>)
 80022a4:	0052      	lsls	r2, r2, #1
 80022a6:	5ad3      	ldrh	r3, [r2, r3]
 80022a8:	b29b      	uxth	r3, r3
 80022aa:	4a0d      	ldr	r2, [pc, #52]	; (80022e0 <TIM15_IRQHandler+0xc4>)
 80022ac:	7812      	ldrb	r2, [r2, #0]
 80022ae:	2180      	movs	r1, #128	; 0x80
 80022b0:	0189      	lsls	r1, r1, #6
 80022b2:	468c      	mov	ip, r1
 80022b4:	4463      	add	r3, ip
 80022b6:	b299      	uxth	r1, r3
 80022b8:	4b0b      	ldr	r3, [pc, #44]	; (80022e8 <TIM15_IRQHandler+0xcc>)
 80022ba:	0052      	lsls	r2, r2, #1
 80022bc:	52d1      	strh	r1, [r2, r3]
			setDigit(pos);
 80022be:	4b08      	ldr	r3, [pc, #32]	; (80022e0 <TIM15_IRQHandler+0xc4>)
 80022c0:	781b      	ldrb	r3, [r3, #0]
 80022c2:	0018      	movs	r0, r3
 80022c4:	f7ff fefa 	bl	80020bc <setDigit>
			pos++;
 80022c8:	4b05      	ldr	r3, [pc, #20]	; (80022e0 <TIM15_IRQHandler+0xc4>)
 80022ca:	781b      	ldrb	r3, [r3, #0]
 80022cc:	3301      	adds	r3, #1
 80022ce:	b2da      	uxtb	r2, r3
 80022d0:	4b03      	ldr	r3, [pc, #12]	; (80022e0 <TIM15_IRQHandler+0xc4>)
 80022d2:	701a      	strb	r2, [r3, #0]

	}
}
 80022d4:	46c0      	nop			; (mov r8, r8)
 80022d6:	46bd      	mov	sp, r7
 80022d8:	bd80      	pop	{r7, pc}
 80022da:	46c0      	nop			; (mov r8, r8)
 80022dc:	40014000 	.word	0x40014000
 80022e0:	2000004a 	.word	0x2000004a
 80022e4:	20000044 	.word	0x20000044
 80022e8:	2000004c 	.word	0x2000004c
 80022ec:	ffffe000 	.word	0xffffe000
 80022f0:	50000400 	.word	0x50000400

080022f4 <SystemInit>:
  * @brief  Setup the microcontroller system.
  * @param  None
  * @retval None
  */
void SystemInit(void)
{
 80022f4:	b580      	push	{r7, lr}
 80022f6:	af00      	add	r7, sp, #0
  /* Configure the Vector Table location add offset address ------------------*/
#ifdef VECT_TAB_SRAM
  SCB->VTOR = SRAM_BASE | VECT_TAB_OFFSET; /* Vector Table Relocation in Internal SRAM */
#else
  SCB->VTOR = FLASH_BASE | VECT_TAB_OFFSET; /* Vector Table Relocation in Internal FLASH */
 80022f8:	4b03      	ldr	r3, [pc, #12]	; (8002308 <SystemInit+0x14>)
 80022fa:	2280      	movs	r2, #128	; 0x80
 80022fc:	0512      	lsls	r2, r2, #20
 80022fe:	609a      	str	r2, [r3, #8]
#endif
}
 8002300:	46c0      	nop			; (mov r8, r8)
 8002302:	46bd      	mov	sp, r7
 8002304:	bd80      	pop	{r7, pc}
 8002306:	46c0      	nop			; (mov r8, r8)
 8002308:	e000ed00 	.word	0xe000ed00

0800230c <FillLEDNumber>:
volatile uint8_t brg_div = 18;

volatile uint16_t ADC_result;	// ADC result for the DEBUG purpose

// This function updates LED data array (first argument) with a number "nbr" on a given position 0 <= "pos" <= 3
void FillLEDNumber(volatile uint8_t * array, uint8_t pos, uint8_t nbr, uint8_t red, uint8_t green, uint8_t blue) {
 800230c:	b5f0      	push	{r4, r5, r6, r7, lr}
 800230e:	46c6      	mov	lr, r8
 8002310:	b500      	push	{lr}
 8002312:	b086      	sub	sp, #24
 8002314:	af02      	add	r7, sp, #8
 8002316:	6078      	str	r0, [r7, #4]
 8002318:	000c      	movs	r4, r1
 800231a:	0010      	movs	r0, r2
 800231c:	0019      	movs	r1, r3
 800231e:	1cfb      	adds	r3, r7, #3
 8002320:	1c22      	adds	r2, r4, #0
 8002322:	701a      	strb	r2, [r3, #0]
 8002324:	1cbb      	adds	r3, r7, #2
 8002326:	1c02      	adds	r2, r0, #0
 8002328:	701a      	strb	r2, [r3, #0]
 800232a:	1c7b      	adds	r3, r7, #1
 800232c:	1c0a      	adds	r2, r1, #0
 800232e:	701a      	strb	r2, [r3, #0]

	uint8_t shift;

	if (pos>1) shift = ((pos*13)+2);
 8002330:	1cfb      	adds	r3, r7, #3
 8002332:	781b      	ldrb	r3, [r3, #0]
 8002334:	2b01      	cmp	r3, #1
 8002336:	d90c      	bls.n	8002352 <FillLEDNumber+0x46>
 8002338:	1cfb      	adds	r3, r7, #3
 800233a:	781b      	ldrb	r3, [r3, #0]
 800233c:	1c1a      	adds	r2, r3, #0
 800233e:	1892      	adds	r2, r2, r2
 8002340:	18d2      	adds	r2, r2, r3
 8002342:	0092      	lsls	r2, r2, #2
 8002344:	18d3      	adds	r3, r2, r3
 8002346:	b2da      	uxtb	r2, r3
 8002348:	230f      	movs	r3, #15
 800234a:	18fb      	adds	r3, r7, r3
 800234c:	3202      	adds	r2, #2
 800234e:	701a      	strb	r2, [r3, #0]
 8002350:	e009      	b.n	8002366 <FillLEDNumber+0x5a>
	else shift = (pos*13);
 8002352:	230f      	movs	r3, #15
 8002354:	18f9      	adds	r1, r7, r3
 8002356:	1cfb      	adds	r3, r7, #3
 8002358:	781b      	ldrb	r3, [r3, #0]
 800235a:	1c1a      	adds	r2, r3, #0
 800235c:	1892      	adds	r2, r2, r2
 800235e:	18d2      	adds	r2, r2, r3
 8002360:	0092      	lsls	r2, r2, #2
 8002362:	18d3      	adds	r3, r2, r3
 8002364:	700b      	strb	r3, [r1, #0]

	switch(nbr) {
 8002366:	1cbb      	adds	r3, r7, #2
 8002368:	781b      	ldrb	r3, [r3, #0]
 800236a:	2b09      	cmp	r3, #9
 800236c:	d900      	bls.n	8002370 <FillLEDNumber+0x64>
 800236e:	e230      	b.n	80027d2 <FillLEDNumber+0x4c6>
 8002370:	009a      	lsls	r2, r3, #2
 8002372:	4bed      	ldr	r3, [pc, #948]	; (8002728 <FillLEDNumber+0x41c>)
 8002374:	18d3      	adds	r3, r2, r3
 8002376:	681b      	ldr	r3, [r3, #0]
 8002378:	469f      	mov	pc, r3
		case 0:
			FillLEDSegment(array, (0+shift), (11+shift), red, green, blue);
 800237a:	210f      	movs	r1, #15
 800237c:	187b      	adds	r3, r7, r1
 800237e:	781b      	ldrb	r3, [r3, #0]
 8002380:	330b      	adds	r3, #11
 8002382:	b2da      	uxtb	r2, r3
 8002384:	1c7b      	adds	r3, r7, #1
 8002386:	781c      	ldrb	r4, [r3, #0]
 8002388:	187b      	adds	r3, r7, r1
 800238a:	7819      	ldrb	r1, [r3, #0]
 800238c:	6878      	ldr	r0, [r7, #4]
 800238e:	2324      	movs	r3, #36	; 0x24
 8002390:	2508      	movs	r5, #8
 8002392:	46ac      	mov	ip, r5
 8002394:	44bc      	add	ip, r7
 8002396:	4463      	add	r3, ip
 8002398:	781b      	ldrb	r3, [r3, #0]
 800239a:	9301      	str	r3, [sp, #4]
 800239c:	2320      	movs	r3, #32
 800239e:	2508      	movs	r5, #8
 80023a0:	46ac      	mov	ip, r5
 80023a2:	44bc      	add	ip, r7
 80023a4:	4463      	add	r3, ip
 80023a6:	781b      	ldrb	r3, [r3, #0]
 80023a8:	9300      	str	r3, [sp, #0]
 80023aa:	0023      	movs	r3, r4
 80023ac:	f000 fa86 	bl	80028bc <FillLEDSegment>
			break;
 80023b0:	e210      	b.n	80027d4 <FillLEDNumber+0x4c8>
		case 1:
			FillLEDSegment(array, (2+shift), (6+shift), red, green, blue);
 80023b2:	220f      	movs	r2, #15
 80023b4:	18bb      	adds	r3, r7, r2
 80023b6:	781b      	ldrb	r3, [r3, #0]
 80023b8:	3302      	adds	r3, #2
 80023ba:	b2d9      	uxtb	r1, r3
 80023bc:	18bb      	adds	r3, r7, r2
 80023be:	781b      	ldrb	r3, [r3, #0]
 80023c0:	3306      	adds	r3, #6
 80023c2:	b2da      	uxtb	r2, r3
 80023c4:	1c7b      	adds	r3, r7, #1
 80023c6:	781c      	ldrb	r4, [r3, #0]
 80023c8:	6878      	ldr	r0, [r7, #4]
 80023ca:	2324      	movs	r3, #36	; 0x24
 80023cc:	2508      	movs	r5, #8
 80023ce:	46ac      	mov	ip, r5
 80023d0:	44bc      	add	ip, r7
 80023d2:	4463      	add	r3, ip
 80023d4:	781b      	ldrb	r3, [r3, #0]
 80023d6:	9301      	str	r3, [sp, #4]
 80023d8:	2320      	movs	r3, #32
 80023da:	2508      	movs	r5, #8
 80023dc:	46ac      	mov	ip, r5
 80023de:	44bc      	add	ip, r7
 80023e0:	4463      	add	r3, ip
 80023e2:	781b      	ldrb	r3, [r3, #0]
 80023e4:	9300      	str	r3, [sp, #0]
 80023e6:	0023      	movs	r3, r4
 80023e8:	f000 fa68 	bl	80028bc <FillLEDSegment>
			break;
 80023ec:	e1f2      	b.n	80027d4 <FillLEDNumber+0x4c8>
		case 2:
			FillLEDSegment(array, (0+shift), (4+shift), red, green, blue);
 80023ee:	250f      	movs	r5, #15
 80023f0:	197b      	adds	r3, r7, r5
 80023f2:	781b      	ldrb	r3, [r3, #0]
 80023f4:	3304      	adds	r3, #4
 80023f6:	b2db      	uxtb	r3, r3
 80023f8:	4698      	mov	r8, r3
 80023fa:	1c7b      	adds	r3, r7, #1
 80023fc:	781c      	ldrb	r4, [r3, #0]
 80023fe:	197b      	adds	r3, r7, r5
 8002400:	7819      	ldrb	r1, [r3, #0]
 8002402:	6878      	ldr	r0, [r7, #4]
 8002404:	2624      	movs	r6, #36	; 0x24
 8002406:	2308      	movs	r3, #8
 8002408:	18fa      	adds	r2, r7, r3
 800240a:	1993      	adds	r3, r2, r6
 800240c:	781b      	ldrb	r3, [r3, #0]
 800240e:	9301      	str	r3, [sp, #4]
 8002410:	2320      	movs	r3, #32
 8002412:	2208      	movs	r2, #8
 8002414:	4694      	mov	ip, r2
 8002416:	44bc      	add	ip, r7
 8002418:	4463      	add	r3, ip
 800241a:	781b      	ldrb	r3, [r3, #0]
 800241c:	9300      	str	r3, [sp, #0]
 800241e:	0023      	movs	r3, r4
 8002420:	4642      	mov	r2, r8
 8002422:	f000 fa4b 	bl	80028bc <FillLEDSegment>
			FillLEDSegment(array, (6+shift), (10+shift), red, green, blue);
 8002426:	197b      	adds	r3, r7, r5
 8002428:	781b      	ldrb	r3, [r3, #0]
 800242a:	3306      	adds	r3, #6
 800242c:	b2d9      	uxtb	r1, r3
 800242e:	197b      	adds	r3, r7, r5
 8002430:	781b      	ldrb	r3, [r3, #0]
 8002432:	330a      	adds	r3, #10
 8002434:	b2db      	uxtb	r3, r3
 8002436:	4698      	mov	r8, r3
 8002438:	1c7b      	adds	r3, r7, #1
 800243a:	781c      	ldrb	r4, [r3, #0]
 800243c:	6878      	ldr	r0, [r7, #4]
 800243e:	2308      	movs	r3, #8
 8002440:	18fa      	adds	r2, r7, r3
 8002442:	1993      	adds	r3, r2, r6
 8002444:	781b      	ldrb	r3, [r3, #0]
 8002446:	9301      	str	r3, [sp, #4]
 8002448:	2320      	movs	r3, #32
 800244a:	2208      	movs	r2, #8
 800244c:	4694      	mov	ip, r2
 800244e:	44bc      	add	ip, r7
 8002450:	4463      	add	r3, ip
 8002452:	781b      	ldrb	r3, [r3, #0]
 8002454:	9300      	str	r3, [sp, #0]
 8002456:	0023      	movs	r3, r4
 8002458:	4642      	mov	r2, r8
 800245a:	f000 fa2f 	bl	80028bc <FillLEDSegment>
			FillLEDSegment(array, (12+shift), (12+shift), red, green, blue);
 800245e:	197b      	adds	r3, r7, r5
 8002460:	781b      	ldrb	r3, [r3, #0]
 8002462:	330c      	adds	r3, #12
 8002464:	b2d9      	uxtb	r1, r3
 8002466:	197b      	adds	r3, r7, r5
 8002468:	781b      	ldrb	r3, [r3, #0]
 800246a:	330c      	adds	r3, #12
 800246c:	b2da      	uxtb	r2, r3
 800246e:	1c7b      	adds	r3, r7, #1
 8002470:	781c      	ldrb	r4, [r3, #0]
 8002472:	6878      	ldr	r0, [r7, #4]
 8002474:	2308      	movs	r3, #8
 8002476:	18fb      	adds	r3, r7, r3
 8002478:	199b      	adds	r3, r3, r6
 800247a:	781b      	ldrb	r3, [r3, #0]
 800247c:	9301      	str	r3, [sp, #4]
 800247e:	2320      	movs	r3, #32
 8002480:	2508      	movs	r5, #8
 8002482:	46ac      	mov	ip, r5
 8002484:	44bc      	add	ip, r7
 8002486:	4463      	add	r3, ip
 8002488:	781b      	ldrb	r3, [r3, #0]
 800248a:	9300      	str	r3, [sp, #0]
 800248c:	0023      	movs	r3, r4
 800248e:	f000 fa15 	bl	80028bc <FillLEDSegment>
			break;
 8002492:	e19f      	b.n	80027d4 <FillLEDNumber+0x4c8>
		case 3:
			FillLEDSegment(array, (0+shift), (8+shift), red, green, blue);
 8002494:	250f      	movs	r5, #15
 8002496:	197b      	adds	r3, r7, r5
 8002498:	781b      	ldrb	r3, [r3, #0]
 800249a:	3308      	adds	r3, #8
 800249c:	b2db      	uxtb	r3, r3
 800249e:	4698      	mov	r8, r3
 80024a0:	1c7b      	adds	r3, r7, #1
 80024a2:	781c      	ldrb	r4, [r3, #0]
 80024a4:	197b      	adds	r3, r7, r5
 80024a6:	7819      	ldrb	r1, [r3, #0]
 80024a8:	6878      	ldr	r0, [r7, #4]
 80024aa:	2624      	movs	r6, #36	; 0x24
 80024ac:	2308      	movs	r3, #8
 80024ae:	18fa      	adds	r2, r7, r3
 80024b0:	1993      	adds	r3, r2, r6
 80024b2:	781b      	ldrb	r3, [r3, #0]
 80024b4:	9301      	str	r3, [sp, #4]
 80024b6:	2320      	movs	r3, #32
 80024b8:	2208      	movs	r2, #8
 80024ba:	4694      	mov	ip, r2
 80024bc:	44bc      	add	ip, r7
 80024be:	4463      	add	r3, ip
 80024c0:	781b      	ldrb	r3, [r3, #0]
 80024c2:	9300      	str	r3, [sp, #0]
 80024c4:	0023      	movs	r3, r4
 80024c6:	4642      	mov	r2, r8
 80024c8:	f000 f9f8 	bl	80028bc <FillLEDSegment>
			FillLEDSegment(array, (10+shift), (10+shift), red, green, blue);
 80024cc:	197b      	adds	r3, r7, r5
 80024ce:	781b      	ldrb	r3, [r3, #0]
 80024d0:	330a      	adds	r3, #10
 80024d2:	b2d9      	uxtb	r1, r3
 80024d4:	197b      	adds	r3, r7, r5
 80024d6:	781b      	ldrb	r3, [r3, #0]
 80024d8:	330a      	adds	r3, #10
 80024da:	b2db      	uxtb	r3, r3
 80024dc:	4698      	mov	r8, r3
 80024de:	1c7b      	adds	r3, r7, #1
 80024e0:	781c      	ldrb	r4, [r3, #0]
 80024e2:	6878      	ldr	r0, [r7, #4]
 80024e4:	2308      	movs	r3, #8
 80024e6:	18fa      	adds	r2, r7, r3
 80024e8:	1993      	adds	r3, r2, r6
 80024ea:	781b      	ldrb	r3, [r3, #0]
 80024ec:	9301      	str	r3, [sp, #4]
 80024ee:	2320      	movs	r3, #32
 80024f0:	2208      	movs	r2, #8
 80024f2:	4694      	mov	ip, r2
 80024f4:	44bc      	add	ip, r7
 80024f6:	4463      	add	r3, ip
 80024f8:	781b      	ldrb	r3, [r3, #0]
 80024fa:	9300      	str	r3, [sp, #0]
 80024fc:	0023      	movs	r3, r4
 80024fe:	4642      	mov	r2, r8
 8002500:	f000 f9dc 	bl	80028bc <FillLEDSegment>
			FillLEDSegment(array, (12+shift), (12+shift), red, green, blue);
 8002504:	197b      	adds	r3, r7, r5
 8002506:	781b      	ldrb	r3, [r3, #0]
 8002508:	330c      	adds	r3, #12
 800250a:	b2d9      	uxtb	r1, r3
 800250c:	197b      	adds	r3, r7, r5
 800250e:	781b      	ldrb	r3, [r3, #0]
 8002510:	330c      	adds	r3, #12
 8002512:	b2da      	uxtb	r2, r3
 8002514:	1c7b      	adds	r3, r7, #1
 8002516:	781c      	ldrb	r4, [r3, #0]
 8002518:	6878      	ldr	r0, [r7, #4]
 800251a:	2308      	movs	r3, #8
 800251c:	18fb      	adds	r3, r7, r3
 800251e:	199b      	adds	r3, r3, r6
 8002520:	781b      	ldrb	r3, [r3, #0]
 8002522:	9301      	str	r3, [sp, #4]
 8002524:	2320      	movs	r3, #32
 8002526:	2508      	movs	r5, #8
 8002528:	46ac      	mov	ip, r5
 800252a:	44bc      	add	ip, r7
 800252c:	4463      	add	r3, ip
 800252e:	781b      	ldrb	r3, [r3, #0]
 8002530:	9300      	str	r3, [sp, #0]
 8002532:	0023      	movs	r3, r4
 8002534:	f000 f9c2 	bl	80028bc <FillLEDSegment>
			break;
 8002538:	e14c      	b.n	80027d4 <FillLEDNumber+0x4c8>
		case 4:
			FillLEDSegment(array, (0+shift), (0+shift), red, green, blue);
 800253a:	1c7b      	adds	r3, r7, #1
 800253c:	781c      	ldrb	r4, [r3, #0]
 800253e:	250f      	movs	r5, #15
 8002540:	197b      	adds	r3, r7, r5
 8002542:	781b      	ldrb	r3, [r3, #0]
 8002544:	4698      	mov	r8, r3
 8002546:	197b      	adds	r3, r7, r5
 8002548:	7819      	ldrb	r1, [r3, #0]
 800254a:	6878      	ldr	r0, [r7, #4]
 800254c:	2624      	movs	r6, #36	; 0x24
 800254e:	2308      	movs	r3, #8
 8002550:	18fa      	adds	r2, r7, r3
 8002552:	1993      	adds	r3, r2, r6
 8002554:	781b      	ldrb	r3, [r3, #0]
 8002556:	9301      	str	r3, [sp, #4]
 8002558:	2320      	movs	r3, #32
 800255a:	2208      	movs	r2, #8
 800255c:	4694      	mov	ip, r2
 800255e:	44bc      	add	ip, r7
 8002560:	4463      	add	r3, ip
 8002562:	781b      	ldrb	r3, [r3, #0]
 8002564:	9300      	str	r3, [sp, #0]
 8002566:	0023      	movs	r3, r4
 8002568:	4642      	mov	r2, r8
 800256a:	f000 f9a7 	bl	80028bc <FillLEDSegment>
			FillLEDSegment(array, (2+shift), (6+shift), red, green, blue);
 800256e:	197b      	adds	r3, r7, r5
 8002570:	781b      	ldrb	r3, [r3, #0]
 8002572:	3302      	adds	r3, #2
 8002574:	b2d9      	uxtb	r1, r3
 8002576:	197b      	adds	r3, r7, r5
 8002578:	781b      	ldrb	r3, [r3, #0]
 800257a:	3306      	adds	r3, #6
 800257c:	b2db      	uxtb	r3, r3
 800257e:	4698      	mov	r8, r3
 8002580:	1c7b      	adds	r3, r7, #1
 8002582:	781c      	ldrb	r4, [r3, #0]
 8002584:	6878      	ldr	r0, [r7, #4]
 8002586:	2308      	movs	r3, #8
 8002588:	18fa      	adds	r2, r7, r3
 800258a:	1993      	adds	r3, r2, r6
 800258c:	781b      	ldrb	r3, [r3, #0]
 800258e:	9301      	str	r3, [sp, #4]
 8002590:	2320      	movs	r3, #32
 8002592:	2208      	movs	r2, #8
 8002594:	4694      	mov	ip, r2
 8002596:	44bc      	add	ip, r7
 8002598:	4463      	add	r3, ip
 800259a:	781b      	ldrb	r3, [r3, #0]
 800259c:	9300      	str	r3, [sp, #0]
 800259e:	0023      	movs	r3, r4
 80025a0:	4642      	mov	r2, r8
 80025a2:	f000 f98b 	bl	80028bc <FillLEDSegment>
			FillLEDSegment(array, (10+shift), (12+shift), red, green, blue);
 80025a6:	197b      	adds	r3, r7, r5
 80025a8:	781b      	ldrb	r3, [r3, #0]
 80025aa:	330a      	adds	r3, #10
 80025ac:	b2d9      	uxtb	r1, r3
 80025ae:	197b      	adds	r3, r7, r5
 80025b0:	781b      	ldrb	r3, [r3, #0]
 80025b2:	330c      	adds	r3, #12
 80025b4:	b2da      	uxtb	r2, r3
 80025b6:	1c7b      	adds	r3, r7, #1
 80025b8:	781c      	ldrb	r4, [r3, #0]
 80025ba:	6878      	ldr	r0, [r7, #4]
 80025bc:	2308      	movs	r3, #8
 80025be:	18fb      	adds	r3, r7, r3
 80025c0:	199b      	adds	r3, r3, r6
 80025c2:	781b      	ldrb	r3, [r3, #0]
 80025c4:	9301      	str	r3, [sp, #4]
 80025c6:	2320      	movs	r3, #32
 80025c8:	2508      	movs	r5, #8
 80025ca:	46ac      	mov	ip, r5
 80025cc:	44bc      	add	ip, r7
 80025ce:	4463      	add	r3, ip
 80025d0:	781b      	ldrb	r3, [r3, #0]
 80025d2:	9300      	str	r3, [sp, #0]
 80025d4:	0023      	movs	r3, r4
 80025d6:	f000 f971 	bl	80028bc <FillLEDSegment>
			break;
 80025da:	e0fb      	b.n	80027d4 <FillLEDNumber+0x4c8>
		case 5:
			FillLEDSegment(array, (0+shift), (2+shift), red, green, blue);
 80025dc:	250f      	movs	r5, #15
 80025de:	197b      	adds	r3, r7, r5
 80025e0:	781b      	ldrb	r3, [r3, #0]
 80025e2:	3302      	adds	r3, #2
 80025e4:	b2db      	uxtb	r3, r3
 80025e6:	4698      	mov	r8, r3
 80025e8:	1c7b      	adds	r3, r7, #1
 80025ea:	781c      	ldrb	r4, [r3, #0]
 80025ec:	197b      	adds	r3, r7, r5
 80025ee:	7819      	ldrb	r1, [r3, #0]
 80025f0:	6878      	ldr	r0, [r7, #4]
 80025f2:	2624      	movs	r6, #36	; 0x24
 80025f4:	2308      	movs	r3, #8
 80025f6:	18fa      	adds	r2, r7, r3
 80025f8:	1993      	adds	r3, r2, r6
 80025fa:	781b      	ldrb	r3, [r3, #0]
 80025fc:	9301      	str	r3, [sp, #4]
 80025fe:	2320      	movs	r3, #32
 8002600:	2208      	movs	r2, #8
 8002602:	4694      	mov	ip, r2
 8002604:	44bc      	add	ip, r7
 8002606:	4463      	add	r3, ip
 8002608:	781b      	ldrb	r3, [r3, #0]
 800260a:	9300      	str	r3, [sp, #0]
 800260c:	0023      	movs	r3, r4
 800260e:	4642      	mov	r2, r8
 8002610:	f000 f954 	bl	80028bc <FillLEDSegment>
			FillLEDSegment(array, (4+shift), (8+shift), red, green, blue);
 8002614:	197b      	adds	r3, r7, r5
 8002616:	781b      	ldrb	r3, [r3, #0]
 8002618:	3304      	adds	r3, #4
 800261a:	b2d9      	uxtb	r1, r3
 800261c:	197b      	adds	r3, r7, r5
 800261e:	781b      	ldrb	r3, [r3, #0]
 8002620:	3308      	adds	r3, #8
 8002622:	b2db      	uxtb	r3, r3
 8002624:	4698      	mov	r8, r3
 8002626:	1c7b      	adds	r3, r7, #1
 8002628:	781c      	ldrb	r4, [r3, #0]
 800262a:	6878      	ldr	r0, [r7, #4]
 800262c:	2308      	movs	r3, #8
 800262e:	18fa      	adds	r2, r7, r3
 8002630:	1993      	adds	r3, r2, r6
 8002632:	781b      	ldrb	r3, [r3, #0]
 8002634:	9301      	str	r3, [sp, #4]
 8002636:	2320      	movs	r3, #32
 8002638:	2208      	movs	r2, #8
 800263a:	4694      	mov	ip, r2
 800263c:	44bc      	add	ip, r7
 800263e:	4463      	add	r3, ip
 8002640:	781b      	ldrb	r3, [r3, #0]
 8002642:	9300      	str	r3, [sp, #0]
 8002644:	0023      	movs	r3, r4
 8002646:	4642      	mov	r2, r8
 8002648:	f000 f938 	bl	80028bc <FillLEDSegment>
			FillLEDSegment(array, (10+shift), (12+shift), red, green, blue);
 800264c:	197b      	adds	r3, r7, r5
 800264e:	781b      	ldrb	r3, [r3, #0]
 8002650:	330a      	adds	r3, #10
 8002652:	b2d9      	uxtb	r1, r3
 8002654:	197b      	adds	r3, r7, r5
 8002656:	781b      	ldrb	r3, [r3, #0]
 8002658:	330c      	adds	r3, #12
 800265a:	b2da      	uxtb	r2, r3
 800265c:	1c7b      	adds	r3, r7, #1
 800265e:	781c      	ldrb	r4, [r3, #0]
 8002660:	6878      	ldr	r0, [r7, #4]
 8002662:	2308      	movs	r3, #8
 8002664:	18fb      	adds	r3, r7, r3
 8002666:	199b      	adds	r3, r3, r6
 8002668:	781b      	ldrb	r3, [r3, #0]
 800266a:	9301      	str	r3, [sp, #4]
 800266c:	2320      	movs	r3, #32
 800266e:	2508      	movs	r5, #8
 8002670:	46ac      	mov	ip, r5
 8002672:	44bc      	add	ip, r7
 8002674:	4463      	add	r3, ip
 8002676:	781b      	ldrb	r3, [r3, #0]
 8002678:	9300      	str	r3, [sp, #0]
 800267a:	0023      	movs	r3, r4
 800267c:	f000 f91e 	bl	80028bc <FillLEDSegment>
			break;
 8002680:	e0a8      	b.n	80027d4 <FillLEDNumber+0x4c8>
		case 6:
			FillLEDSegment(array, (0+shift), (2+shift), red, green, blue);
 8002682:	250f      	movs	r5, #15
 8002684:	197b      	adds	r3, r7, r5
 8002686:	781b      	ldrb	r3, [r3, #0]
 8002688:	3302      	adds	r3, #2
 800268a:	b2db      	uxtb	r3, r3
 800268c:	4698      	mov	r8, r3
 800268e:	1c7b      	adds	r3, r7, #1
 8002690:	781c      	ldrb	r4, [r3, #0]
 8002692:	197b      	adds	r3, r7, r5
 8002694:	7819      	ldrb	r1, [r3, #0]
 8002696:	6878      	ldr	r0, [r7, #4]
 8002698:	2624      	movs	r6, #36	; 0x24
 800269a:	2308      	movs	r3, #8
 800269c:	18fa      	adds	r2, r7, r3
 800269e:	1993      	adds	r3, r2, r6
 80026a0:	781b      	ldrb	r3, [r3, #0]
 80026a2:	9301      	str	r3, [sp, #4]
 80026a4:	2320      	movs	r3, #32
 80026a6:	2208      	movs	r2, #8
 80026a8:	4694      	mov	ip, r2
 80026aa:	44bc      	add	ip, r7
 80026ac:	4463      	add	r3, ip
 80026ae:	781b      	ldrb	r3, [r3, #0]
 80026b0:	9300      	str	r3, [sp, #0]
 80026b2:	0023      	movs	r3, r4
 80026b4:	4642      	mov	r2, r8
 80026b6:	f000 f901 	bl	80028bc <FillLEDSegment>
			FillLEDSegment(array, (4+shift), (12+shift), red, green, blue);
 80026ba:	197b      	adds	r3, r7, r5
 80026bc:	781b      	ldrb	r3, [r3, #0]
 80026be:	3304      	adds	r3, #4
 80026c0:	b2d9      	uxtb	r1, r3
 80026c2:	197b      	adds	r3, r7, r5
 80026c4:	781b      	ldrb	r3, [r3, #0]
 80026c6:	330c      	adds	r3, #12
 80026c8:	b2da      	uxtb	r2, r3
 80026ca:	1c7b      	adds	r3, r7, #1
 80026cc:	781c      	ldrb	r4, [r3, #0]
 80026ce:	6878      	ldr	r0, [r7, #4]
 80026d0:	2308      	movs	r3, #8
 80026d2:	18fb      	adds	r3, r7, r3
 80026d4:	199b      	adds	r3, r3, r6
 80026d6:	781b      	ldrb	r3, [r3, #0]
 80026d8:	9301      	str	r3, [sp, #4]
 80026da:	2320      	movs	r3, #32
 80026dc:	2508      	movs	r5, #8
 80026de:	46ac      	mov	ip, r5
 80026e0:	44bc      	add	ip, r7
 80026e2:	4463      	add	r3, ip
 80026e4:	781b      	ldrb	r3, [r3, #0]
 80026e6:	9300      	str	r3, [sp, #0]
 80026e8:	0023      	movs	r3, r4
 80026ea:	f000 f8e7 	bl	80028bc <FillLEDSegment>
			break;
 80026ee:	e071      	b.n	80027d4 <FillLEDNumber+0x4c8>
		case 7:
			FillLEDSegment(array, (0+shift), (6+shift), red, green, blue);
 80026f0:	210f      	movs	r1, #15
 80026f2:	187b      	adds	r3, r7, r1
 80026f4:	781b      	ldrb	r3, [r3, #0]
 80026f6:	3306      	adds	r3, #6
 80026f8:	b2da      	uxtb	r2, r3
 80026fa:	1c7b      	adds	r3, r7, #1
 80026fc:	781c      	ldrb	r4, [r3, #0]
 80026fe:	187b      	adds	r3, r7, r1
 8002700:	7819      	ldrb	r1, [r3, #0]
 8002702:	6878      	ldr	r0, [r7, #4]
 8002704:	2324      	movs	r3, #36	; 0x24
 8002706:	2508      	movs	r5, #8
 8002708:	46ac      	mov	ip, r5
 800270a:	44bc      	add	ip, r7
 800270c:	4463      	add	r3, ip
 800270e:	781b      	ldrb	r3, [r3, #0]
 8002710:	9301      	str	r3, [sp, #4]
 8002712:	2320      	movs	r3, #32
 8002714:	2508      	movs	r5, #8
 8002716:	46ac      	mov	ip, r5
 8002718:	44bc      	add	ip, r7
 800271a:	4463      	add	r3, ip
 800271c:	781b      	ldrb	r3, [r3, #0]
 800271e:	9300      	str	r3, [sp, #0]
 8002720:	0023      	movs	r3, r4
 8002722:	f000 f8cb 	bl	80028bc <FillLEDSegment>
			break;
 8002726:	e055      	b.n	80027d4 <FillLEDNumber+0x4c8>
 8002728:	080033e4 	.word	0x080033e4
		case 8:
			FillLEDSegment(array, (0+shift), (12+shift), red, green, blue);
 800272c:	210f      	movs	r1, #15
 800272e:	187b      	adds	r3, r7, r1
 8002730:	781b      	ldrb	r3, [r3, #0]
 8002732:	330c      	adds	r3, #12
 8002734:	b2da      	uxtb	r2, r3
 8002736:	1c7b      	adds	r3, r7, #1
 8002738:	781c      	ldrb	r4, [r3, #0]
 800273a:	187b      	adds	r3, r7, r1
 800273c:	7819      	ldrb	r1, [r3, #0]
 800273e:	6878      	ldr	r0, [r7, #4]
 8002740:	2324      	movs	r3, #36	; 0x24
 8002742:	2508      	movs	r5, #8
 8002744:	46ac      	mov	ip, r5
 8002746:	44bc      	add	ip, r7
 8002748:	4463      	add	r3, ip
 800274a:	781b      	ldrb	r3, [r3, #0]
 800274c:	9301      	str	r3, [sp, #4]
 800274e:	2320      	movs	r3, #32
 8002750:	2508      	movs	r5, #8
 8002752:	46ac      	mov	ip, r5
 8002754:	44bc      	add	ip, r7
 8002756:	4463      	add	r3, ip
 8002758:	781b      	ldrb	r3, [r3, #0]
 800275a:	9300      	str	r3, [sp, #0]
 800275c:	0023      	movs	r3, r4
 800275e:	f000 f8ad 	bl	80028bc <FillLEDSegment>
			break;
 8002762:	e037      	b.n	80027d4 <FillLEDNumber+0x4c8>
		case 9:
			FillLEDSegment(array, (0+shift), (8+shift), red, green, blue);
 8002764:	250f      	movs	r5, #15
 8002766:	197b      	adds	r3, r7, r5
 8002768:	781b      	ldrb	r3, [r3, #0]
 800276a:	3308      	adds	r3, #8
 800276c:	b2db      	uxtb	r3, r3
 800276e:	4698      	mov	r8, r3
 8002770:	1c7b      	adds	r3, r7, #1
 8002772:	781c      	ldrb	r4, [r3, #0]
 8002774:	197b      	adds	r3, r7, r5
 8002776:	7819      	ldrb	r1, [r3, #0]
 8002778:	6878      	ldr	r0, [r7, #4]
 800277a:	2624      	movs	r6, #36	; 0x24
 800277c:	2308      	movs	r3, #8
 800277e:	18fa      	adds	r2, r7, r3
 8002780:	1993      	adds	r3, r2, r6
 8002782:	781b      	ldrb	r3, [r3, #0]
 8002784:	9301      	str	r3, [sp, #4]
 8002786:	2320      	movs	r3, #32
 8002788:	2208      	movs	r2, #8
 800278a:	4694      	mov	ip, r2
 800278c:	44bc      	add	ip, r7
 800278e:	4463      	add	r3, ip
 8002790:	781b      	ldrb	r3, [r3, #0]
 8002792:	9300      	str	r3, [sp, #0]
 8002794:	0023      	movs	r3, r4
 8002796:	4642      	mov	r2, r8
 8002798:	f000 f890 	bl	80028bc <FillLEDSegment>
			FillLEDSegment(array, (10+shift), (12+shift), red, green, blue);
 800279c:	197b      	adds	r3, r7, r5
 800279e:	781b      	ldrb	r3, [r3, #0]
 80027a0:	330a      	adds	r3, #10
 80027a2:	b2d9      	uxtb	r1, r3
 80027a4:	197b      	adds	r3, r7, r5
 80027a6:	781b      	ldrb	r3, [r3, #0]
 80027a8:	330c      	adds	r3, #12
 80027aa:	b2da      	uxtb	r2, r3
 80027ac:	1c7b      	adds	r3, r7, #1
 80027ae:	781c      	ldrb	r4, [r3, #0]
 80027b0:	6878      	ldr	r0, [r7, #4]
 80027b2:	2308      	movs	r3, #8
 80027b4:	18fb      	adds	r3, r7, r3
 80027b6:	199b      	adds	r3, r3, r6
 80027b8:	781b      	ldrb	r3, [r3, #0]
 80027ba:	9301      	str	r3, [sp, #4]
 80027bc:	2320      	movs	r3, #32
 80027be:	2508      	movs	r5, #8
 80027c0:	46ac      	mov	ip, r5
 80027c2:	44bc      	add	ip, r7
 80027c4:	4463      	add	r3, ip
 80027c6:	781b      	ldrb	r3, [r3, #0]
 80027c8:	9300      	str	r3, [sp, #0]
 80027ca:	0023      	movs	r3, r4
 80027cc:	f000 f876 	bl	80028bc <FillLEDSegment>
			break;
 80027d0:	e000      	b.n	80027d4 <FillLEDNumber+0x4c8>
		default:
			break;
 80027d2:	46c0      	nop			; (mov r8, r8)
	}
}
 80027d4:	46c0      	nop			; (mov r8, r8)
 80027d6:	46bd      	mov	sp, r7
 80027d8:	b004      	add	sp, #16
 80027da:	bc04      	pop	{r2}
 80027dc:	4690      	mov	r8, r2
 80027de:	bdf0      	pop	{r4, r5, r6, r7, pc}

080027e0 <FillLEDArray>:



// This function updates the entire LED data buffer (first argument)
void FillLEDArray(volatile uint8_t * array, uint8_t red, uint8_t green, uint8_t blue) {		// * array is the array to be entirely filled with LED data
 80027e0:	b590      	push	{r4, r7, lr}
 80027e2:	b085      	sub	sp, #20
 80027e4:	af00      	add	r7, sp, #0
 80027e6:	6078      	str	r0, [r7, #4]
 80027e8:	000c      	movs	r4, r1
 80027ea:	0010      	movs	r0, r2
 80027ec:	0019      	movs	r1, r3
 80027ee:	1cfb      	adds	r3, r7, #3
 80027f0:	1c22      	adds	r2, r4, #0
 80027f2:	701a      	strb	r2, [r3, #0]
 80027f4:	1cbb      	adds	r3, r7, #2
 80027f6:	1c02      	adds	r2, r0, #0
 80027f8:	701a      	strb	r2, [r3, #0]
 80027fa:	1c7b      	adds	r3, r7, #1
 80027fc:	1c0a      	adds	r2, r1, #0
 80027fe:	701a      	strb	r2, [r3, #0]
	uint16_t a, b, c;
	b=0;
 8002800:	230c      	movs	r3, #12
 8002802:	18fb      	adds	r3, r7, r3
 8002804:	2200      	movs	r2, #0
 8002806:	801a      	strh	r2, [r3, #0]
	for (a=0; a<(WS_NUMBER*24); a++) {
 8002808:	230e      	movs	r3, #14
 800280a:	18fb      	adds	r3, r7, r3
 800280c:	2200      	movs	r2, #0
 800280e:	801a      	strh	r2, [r3, #0]
 8002810:	e045      	b.n	800289e <FillLEDArray+0xbe>
		getBaseLed(green, red, blue);
 8002812:	1c7b      	adds	r3, r7, #1
 8002814:	781a      	ldrb	r2, [r3, #0]
 8002816:	1cfb      	adds	r3, r7, #3
 8002818:	7819      	ldrb	r1, [r3, #0]
 800281a:	1cbb      	adds	r3, r7, #2
 800281c:	781b      	ldrb	r3, [r3, #0]
 800281e:	0018      	movs	r0, r3
 8002820:	f000 f8c2 	bl	80029a8 <getBaseLed>
		c=0;
 8002824:	230a      	movs	r3, #10
 8002826:	18fb      	adds	r3, r7, r3
 8002828:	2200      	movs	r2, #0
 800282a:	801a      	strh	r2, [r3, #0]
		while(c<23) {
 800282c:	e01a      	b.n	8002864 <FillLEDArray+0x84>
			array[a] = b_led[b]; a++; b++;
 800282e:	200c      	movs	r0, #12
 8002830:	183b      	adds	r3, r7, r0
 8002832:	881a      	ldrh	r2, [r3, #0]
 8002834:	240e      	movs	r4, #14
 8002836:	193b      	adds	r3, r7, r4
 8002838:	881b      	ldrh	r3, [r3, #0]
 800283a:	6879      	ldr	r1, [r7, #4]
 800283c:	18cb      	adds	r3, r1, r3
 800283e:	491d      	ldr	r1, [pc, #116]	; (80028b4 <FillLEDArray+0xd4>)
 8002840:	5c8a      	ldrb	r2, [r1, r2]
 8002842:	701a      	strb	r2, [r3, #0]
 8002844:	193b      	adds	r3, r7, r4
 8002846:	881a      	ldrh	r2, [r3, #0]
 8002848:	193b      	adds	r3, r7, r4
 800284a:	3201      	adds	r2, #1
 800284c:	801a      	strh	r2, [r3, #0]
 800284e:	183b      	adds	r3, r7, r0
 8002850:	881a      	ldrh	r2, [r3, #0]
 8002852:	183b      	adds	r3, r7, r0
 8002854:	3201      	adds	r2, #1
 8002856:	801a      	strh	r2, [r3, #0]
			c++;
 8002858:	210a      	movs	r1, #10
 800285a:	187b      	adds	r3, r7, r1
 800285c:	881a      	ldrh	r2, [r3, #0]
 800285e:	187b      	adds	r3, r7, r1
 8002860:	3201      	adds	r2, #1
 8002862:	801a      	strh	r2, [r3, #0]
		while(c<23) {
 8002864:	230a      	movs	r3, #10
 8002866:	18fb      	adds	r3, r7, r3
 8002868:	881b      	ldrh	r3, [r3, #0]
 800286a:	2b16      	cmp	r3, #22
 800286c:	d9df      	bls.n	800282e <FillLEDArray+0x4e>
		}
		array[a] = b_led[b]; b++;
 800286e:	200c      	movs	r0, #12
 8002870:	183b      	adds	r3, r7, r0
 8002872:	881a      	ldrh	r2, [r3, #0]
 8002874:	240e      	movs	r4, #14
 8002876:	193b      	adds	r3, r7, r4
 8002878:	881b      	ldrh	r3, [r3, #0]
 800287a:	6879      	ldr	r1, [r7, #4]
 800287c:	18cb      	adds	r3, r1, r3
 800287e:	490d      	ldr	r1, [pc, #52]	; (80028b4 <FillLEDArray+0xd4>)
 8002880:	5c8a      	ldrb	r2, [r1, r2]
 8002882:	701a      	strb	r2, [r3, #0]
 8002884:	183b      	adds	r3, r7, r0
 8002886:	881a      	ldrh	r2, [r3, #0]
 8002888:	183b      	adds	r3, r7, r0
 800288a:	3201      	adds	r2, #1
 800288c:	801a      	strh	r2, [r3, #0]
		b=0;
 800288e:	183b      	adds	r3, r7, r0
 8002890:	2200      	movs	r2, #0
 8002892:	801a      	strh	r2, [r3, #0]
	for (a=0; a<(WS_NUMBER*24); a++) {
 8002894:	193b      	adds	r3, r7, r4
 8002896:	881a      	ldrh	r2, [r3, #0]
 8002898:	193b      	adds	r3, r7, r4
 800289a:	3201      	adds	r2, #1
 800289c:	801a      	strh	r2, [r3, #0]
 800289e:	230e      	movs	r3, #14
 80028a0:	18fb      	adds	r3, r7, r3
 80028a2:	881b      	ldrh	r3, [r3, #0]
 80028a4:	4a04      	ldr	r2, [pc, #16]	; (80028b8 <FillLEDArray+0xd8>)
 80028a6:	4293      	cmp	r3, r2
 80028a8:	d9b3      	bls.n	8002812 <FillLEDArray+0x32>
	}
}
 80028aa:	46c0      	nop			; (mov r8, r8)
 80028ac:	46bd      	mov	sp, r7
 80028ae:	b005      	add	sp, #20
 80028b0:	bd90      	pop	{r4, r7, pc}
 80028b2:	46c0      	nop			; (mov r8, r8)
 80028b4:	20000594 	.word	0x20000594
 80028b8:	0000050f 	.word	0x0000050f

080028bc <FillLEDSegment>:
// This function updates LED data array (first argument) within specified indexes: start_idx and end_idx
void FillLEDSegment(volatile uint8_t * array, uint8_t start_idx, uint8_t end_idx, uint8_t red, uint8_t green, uint8_t blue) {
 80028bc:	b590      	push	{r4, r7, lr}
 80028be:	b085      	sub	sp, #20
 80028c0:	af00      	add	r7, sp, #0
 80028c2:	6078      	str	r0, [r7, #4]
 80028c4:	000c      	movs	r4, r1
 80028c6:	0010      	movs	r0, r2
 80028c8:	0019      	movs	r1, r3
 80028ca:	1cfb      	adds	r3, r7, #3
 80028cc:	1c22      	adds	r2, r4, #0
 80028ce:	701a      	strb	r2, [r3, #0]
 80028d0:	1cbb      	adds	r3, r7, #2
 80028d2:	1c02      	adds	r2, r0, #0
 80028d4:	701a      	strb	r2, [r3, #0]
 80028d6:	1c7b      	adds	r3, r7, #1
 80028d8:	1c0a      	adds	r2, r1, #0
 80028da:	701a      	strb	r2, [r3, #0]
	uint16_t a, b, c;
	b=0;
 80028dc:	230c      	movs	r3, #12
 80028de:	18fb      	adds	r3, r7, r3
 80028e0:	2200      	movs	r2, #0
 80028e2:	801a      	strh	r2, [r3, #0]
	for (a=(start_idx*24); a<=(end_idx*24); a++) {
 80028e4:	1cfb      	adds	r3, r7, #3
 80028e6:	781b      	ldrb	r3, [r3, #0]
 80028e8:	b29a      	uxth	r2, r3
 80028ea:	230e      	movs	r3, #14
 80028ec:	18fb      	adds	r3, r7, r3
 80028ee:	2118      	movs	r1, #24
 80028f0:	434a      	muls	r2, r1
 80028f2:	801a      	strh	r2, [r3, #0]
 80028f4:	e047      	b.n	8002986 <FillLEDSegment+0xca>
		getBaseLed(green, red, blue);
 80028f6:	2324      	movs	r3, #36	; 0x24
 80028f8:	18fb      	adds	r3, r7, r3
 80028fa:	781a      	ldrb	r2, [r3, #0]
 80028fc:	1c7b      	adds	r3, r7, #1
 80028fe:	7819      	ldrb	r1, [r3, #0]
 8002900:	2320      	movs	r3, #32
 8002902:	18fb      	adds	r3, r7, r3
 8002904:	781b      	ldrb	r3, [r3, #0]
 8002906:	0018      	movs	r0, r3
 8002908:	f000 f84e 	bl	80029a8 <getBaseLed>
		c=0;
 800290c:	230a      	movs	r3, #10
 800290e:	18fb      	adds	r3, r7, r3
 8002910:	2200      	movs	r2, #0
 8002912:	801a      	strh	r2, [r3, #0]
		while(c<23) {
 8002914:	e01a      	b.n	800294c <FillLEDSegment+0x90>
			array[a] = b_led[b]; a++; b++;
 8002916:	200c      	movs	r0, #12
 8002918:	183b      	adds	r3, r7, r0
 800291a:	881a      	ldrh	r2, [r3, #0]
 800291c:	240e      	movs	r4, #14
 800291e:	193b      	adds	r3, r7, r4
 8002920:	881b      	ldrh	r3, [r3, #0]
 8002922:	6879      	ldr	r1, [r7, #4]
 8002924:	18cb      	adds	r3, r1, r3
 8002926:	491f      	ldr	r1, [pc, #124]	; (80029a4 <FillLEDSegment+0xe8>)
 8002928:	5c8a      	ldrb	r2, [r1, r2]
 800292a:	701a      	strb	r2, [r3, #0]
 800292c:	193b      	adds	r3, r7, r4
 800292e:	881a      	ldrh	r2, [r3, #0]
 8002930:	193b      	adds	r3, r7, r4
 8002932:	3201      	adds	r2, #1
 8002934:	801a      	strh	r2, [r3, #0]
 8002936:	183b      	adds	r3, r7, r0
 8002938:	881a      	ldrh	r2, [r3, #0]
 800293a:	183b      	adds	r3, r7, r0
 800293c:	3201      	adds	r2, #1
 800293e:	801a      	strh	r2, [r3, #0]
			c++;
 8002940:	210a      	movs	r1, #10
 8002942:	187b      	adds	r3, r7, r1
 8002944:	881a      	ldrh	r2, [r3, #0]
 8002946:	187b      	adds	r3, r7, r1
 8002948:	3201      	adds	r2, #1
 800294a:	801a      	strh	r2, [r3, #0]
		while(c<23) {
 800294c:	230a      	movs	r3, #10
 800294e:	18fb      	adds	r3, r7, r3
 8002950:	881b      	ldrh	r3, [r3, #0]
 8002952:	2b16      	cmp	r3, #22
 8002954:	d9df      	bls.n	8002916 <FillLEDSegment+0x5a>
		}
		array[a] = b_led[b]; 	  b++;
 8002956:	200c      	movs	r0, #12
 8002958:	183b      	adds	r3, r7, r0
 800295a:	881a      	ldrh	r2, [r3, #0]
 800295c:	240e      	movs	r4, #14
 800295e:	193b      	adds	r3, r7, r4
 8002960:	881b      	ldrh	r3, [r3, #0]
 8002962:	6879      	ldr	r1, [r7, #4]
 8002964:	18cb      	adds	r3, r1, r3
 8002966:	490f      	ldr	r1, [pc, #60]	; (80029a4 <FillLEDSegment+0xe8>)
 8002968:	5c8a      	ldrb	r2, [r1, r2]
 800296a:	701a      	strb	r2, [r3, #0]
 800296c:	183b      	adds	r3, r7, r0
 800296e:	881a      	ldrh	r2, [r3, #0]
 8002970:	183b      	adds	r3, r7, r0
 8002972:	3201      	adds	r2, #1
 8002974:	801a      	strh	r2, [r3, #0]
		b=0;
 8002976:	183b      	adds	r3, r7, r0
 8002978:	2200      	movs	r2, #0
 800297a:	801a      	strh	r2, [r3, #0]
	for (a=(start_idx*24); a<=(end_idx*24); a++) {
 800297c:	193b      	adds	r3, r7, r4
 800297e:	881a      	ldrh	r2, [r3, #0]
 8002980:	193b      	adds	r3, r7, r4
 8002982:	3201      	adds	r2, #1
 8002984:	801a      	strh	r2, [r3, #0]
 8002986:	230e      	movs	r3, #14
 8002988:	18fb      	adds	r3, r7, r3
 800298a:	8819      	ldrh	r1, [r3, #0]
 800298c:	1cbb      	adds	r3, r7, #2
 800298e:	781a      	ldrb	r2, [r3, #0]
 8002990:	0013      	movs	r3, r2
 8002992:	005b      	lsls	r3, r3, #1
 8002994:	189b      	adds	r3, r3, r2
 8002996:	00db      	lsls	r3, r3, #3
 8002998:	4299      	cmp	r1, r3
 800299a:	ddac      	ble.n	80028f6 <FillLEDSegment+0x3a>
	}
}
 800299c:	46c0      	nop			; (mov r8, r8)
 800299e:	46bd      	mov	sp, r7
 80029a0:	b005      	add	sp, #20
 80029a2:	bd90      	pop	{r4, r7, pc}
 80029a4:	20000594 	.word	0x20000594

080029a8 <getBaseLed>:

// This function updates b_led[24] array
void getBaseLed(uint8_t green, uint8_t red, uint8_t blue) {		// *bld is the array to be updated
 80029a8:	b590      	push	{r4, r7, lr}
 80029aa:	b085      	sub	sp, #20
 80029ac:	af00      	add	r7, sp, #0
 80029ae:	0004      	movs	r4, r0
 80029b0:	0008      	movs	r0, r1
 80029b2:	0011      	movs	r1, r2
 80029b4:	1dfb      	adds	r3, r7, #7
 80029b6:	1c22      	adds	r2, r4, #0
 80029b8:	701a      	strb	r2, [r3, #0]
 80029ba:	1dbb      	adds	r3, r7, #6
 80029bc:	1c02      	adds	r2, r0, #0
 80029be:	701a      	strb	r2, [r3, #0]
 80029c0:	1d7b      	adds	r3, r7, #5
 80029c2:	1c0a      	adds	r2, r1, #0
 80029c4:	701a      	strb	r2, [r3, #0]
	uint8_t k, i;

	getBaseColour(green);
 80029c6:	1dfb      	adds	r3, r7, #7
 80029c8:	781b      	ldrb	r3, [r3, #0]
 80029ca:	0018      	movs	r0, r3
 80029cc:	f000 f878 	bl	8002ac0 <getBaseColour>
	i=7;
 80029d0:	230e      	movs	r3, #14
 80029d2:	18fb      	adds	r3, r7, r3
 80029d4:	2207      	movs	r2, #7
 80029d6:	701a      	strb	r2, [r3, #0]
	for (k=0; k<8; k++) {
 80029d8:	230f      	movs	r3, #15
 80029da:	18fb      	adds	r3, r7, r3
 80029dc:	2200      	movs	r2, #0
 80029de:	701a      	strb	r2, [r3, #0]
 80029e0:	e013      	b.n	8002a0a <getBaseLed+0x62>
		b_led[k] = b_colour[i];
 80029e2:	200e      	movs	r0, #14
 80029e4:	183b      	adds	r3, r7, r0
 80029e6:	781a      	ldrb	r2, [r3, #0]
 80029e8:	240f      	movs	r4, #15
 80029ea:	193b      	adds	r3, r7, r4
 80029ec:	781b      	ldrb	r3, [r3, #0]
 80029ee:	4932      	ldr	r1, [pc, #200]	; (8002ab8 <getBaseLed+0x110>)
 80029f0:	5c89      	ldrb	r1, [r1, r2]
 80029f2:	4a32      	ldr	r2, [pc, #200]	; (8002abc <getBaseLed+0x114>)
 80029f4:	54d1      	strb	r1, [r2, r3]
		i--;
 80029f6:	183b      	adds	r3, r7, r0
 80029f8:	781a      	ldrb	r2, [r3, #0]
 80029fa:	183b      	adds	r3, r7, r0
 80029fc:	3a01      	subs	r2, #1
 80029fe:	701a      	strb	r2, [r3, #0]
	for (k=0; k<8; k++) {
 8002a00:	193b      	adds	r3, r7, r4
 8002a02:	781a      	ldrb	r2, [r3, #0]
 8002a04:	193b      	adds	r3, r7, r4
 8002a06:	3201      	adds	r2, #1
 8002a08:	701a      	strb	r2, [r3, #0]
 8002a0a:	230f      	movs	r3, #15
 8002a0c:	18fb      	adds	r3, r7, r3
 8002a0e:	781b      	ldrb	r3, [r3, #0]
 8002a10:	2b07      	cmp	r3, #7
 8002a12:	d9e6      	bls.n	80029e2 <getBaseLed+0x3a>
	}
	getBaseColour(red);
 8002a14:	1dbb      	adds	r3, r7, #6
 8002a16:	781b      	ldrb	r3, [r3, #0]
 8002a18:	0018      	movs	r0, r3
 8002a1a:	f000 f851 	bl	8002ac0 <getBaseColour>
	i=7;
 8002a1e:	230e      	movs	r3, #14
 8002a20:	18fb      	adds	r3, r7, r3
 8002a22:	2207      	movs	r2, #7
 8002a24:	701a      	strb	r2, [r3, #0]
	for (k=8; k<16; k++) {
 8002a26:	230f      	movs	r3, #15
 8002a28:	18fb      	adds	r3, r7, r3
 8002a2a:	2208      	movs	r2, #8
 8002a2c:	701a      	strb	r2, [r3, #0]
 8002a2e:	e013      	b.n	8002a58 <getBaseLed+0xb0>
		b_led[k] = b_colour[i];
 8002a30:	200e      	movs	r0, #14
 8002a32:	183b      	adds	r3, r7, r0
 8002a34:	781a      	ldrb	r2, [r3, #0]
 8002a36:	240f      	movs	r4, #15
 8002a38:	193b      	adds	r3, r7, r4
 8002a3a:	781b      	ldrb	r3, [r3, #0]
 8002a3c:	491e      	ldr	r1, [pc, #120]	; (8002ab8 <getBaseLed+0x110>)
 8002a3e:	5c89      	ldrb	r1, [r1, r2]
 8002a40:	4a1e      	ldr	r2, [pc, #120]	; (8002abc <getBaseLed+0x114>)
 8002a42:	54d1      	strb	r1, [r2, r3]
		i--;
 8002a44:	183b      	adds	r3, r7, r0
 8002a46:	781a      	ldrb	r2, [r3, #0]
 8002a48:	183b      	adds	r3, r7, r0
 8002a4a:	3a01      	subs	r2, #1
 8002a4c:	701a      	strb	r2, [r3, #0]
	for (k=8; k<16; k++) {
 8002a4e:	193b      	adds	r3, r7, r4
 8002a50:	781a      	ldrb	r2, [r3, #0]
 8002a52:	193b      	adds	r3, r7, r4
 8002a54:	3201      	adds	r2, #1
 8002a56:	701a      	strb	r2, [r3, #0]
 8002a58:	230f      	movs	r3, #15
 8002a5a:	18fb      	adds	r3, r7, r3
 8002a5c:	781b      	ldrb	r3, [r3, #0]
 8002a5e:	2b0f      	cmp	r3, #15
 8002a60:	d9e6      	bls.n	8002a30 <getBaseLed+0x88>
	}
	getBaseColour(blue);
 8002a62:	1d7b      	adds	r3, r7, #5
 8002a64:	781b      	ldrb	r3, [r3, #0]
 8002a66:	0018      	movs	r0, r3
 8002a68:	f000 f82a 	bl	8002ac0 <getBaseColour>
	i=7;
 8002a6c:	230e      	movs	r3, #14
 8002a6e:	18fb      	adds	r3, r7, r3
 8002a70:	2207      	movs	r2, #7
 8002a72:	701a      	strb	r2, [r3, #0]
	for (k=16; k<24; k++) {
 8002a74:	230f      	movs	r3, #15
 8002a76:	18fb      	adds	r3, r7, r3
 8002a78:	2210      	movs	r2, #16
 8002a7a:	701a      	strb	r2, [r3, #0]
 8002a7c:	e013      	b.n	8002aa6 <getBaseLed+0xfe>
		b_led[k] = b_colour[i];
 8002a7e:	200e      	movs	r0, #14
 8002a80:	183b      	adds	r3, r7, r0
 8002a82:	781a      	ldrb	r2, [r3, #0]
 8002a84:	240f      	movs	r4, #15
 8002a86:	193b      	adds	r3, r7, r4
 8002a88:	781b      	ldrb	r3, [r3, #0]
 8002a8a:	490b      	ldr	r1, [pc, #44]	; (8002ab8 <getBaseLed+0x110>)
 8002a8c:	5c89      	ldrb	r1, [r1, r2]
 8002a8e:	4a0b      	ldr	r2, [pc, #44]	; (8002abc <getBaseLed+0x114>)
 8002a90:	54d1      	strb	r1, [r2, r3]
		i--;
 8002a92:	183b      	adds	r3, r7, r0
 8002a94:	781a      	ldrb	r2, [r3, #0]
 8002a96:	183b      	adds	r3, r7, r0
 8002a98:	3a01      	subs	r2, #1
 8002a9a:	701a      	strb	r2, [r3, #0]
	for (k=16; k<24; k++) {
 8002a9c:	193b      	adds	r3, r7, r4
 8002a9e:	781a      	ldrb	r2, [r3, #0]
 8002aa0:	193b      	adds	r3, r7, r4
 8002aa2:	3201      	adds	r2, #1
 8002aa4:	701a      	strb	r2, [r3, #0]
 8002aa6:	230f      	movs	r3, #15
 8002aa8:	18fb      	adds	r3, r7, r3
 8002aaa:	781b      	ldrb	r3, [r3, #0]
 8002aac:	2b17      	cmp	r3, #23
 8002aae:	d9e6      	bls.n	8002a7e <getBaseLed+0xd6>
	}
}
 8002ab0:	46c0      	nop			; (mov r8, r8)
 8002ab2:	46bd      	mov	sp, r7
 8002ab4:	b005      	add	sp, #20
 8002ab6:	bd90      	pop	{r4, r7, pc}
 8002ab8:	200005ac 	.word	0x200005ac
 8002abc:	20000594 	.word	0x20000594

08002ac0 <getBaseColour>:

// This function updates b_colour[8] array (one colour out of three/led)
void getBaseColour(uint8_t col_val) {	// *bcl is the array to be updated
 8002ac0:	b580      	push	{r7, lr}
 8002ac2:	b084      	sub	sp, #16
 8002ac4:	af00      	add	r7, sp, #0
 8002ac6:	0002      	movs	r2, r0
 8002ac8:	1dfb      	adds	r3, r7, #7
 8002aca:	701a      	strb	r2, [r3, #0]

	uint8_t temp;
	for (uint8_t j=0; j<8; j++) {
 8002acc:	230f      	movs	r3, #15
 8002ace:	18fb      	adds	r3, r7, r3
 8002ad0:	2200      	movs	r2, #0
 8002ad2:	701a      	strb	r2, [r3, #0]
 8002ad4:	e022      	b.n	8002b1c <getBaseColour+0x5c>
		temp = (col_val>>j);
 8002ad6:	1dfb      	adds	r3, r7, #7
 8002ad8:	781a      	ldrb	r2, [r3, #0]
 8002ada:	230f      	movs	r3, #15
 8002adc:	18fb      	adds	r3, r7, r3
 8002ade:	781b      	ldrb	r3, [r3, #0]
 8002ae0:	411a      	asrs	r2, r3
 8002ae2:	210e      	movs	r1, #14
 8002ae4:	187b      	adds	r3, r7, r1
 8002ae6:	701a      	strb	r2, [r3, #0]
		if ((temp%2) == 0) b_colour[j] = SPI_zero;
 8002ae8:	187b      	adds	r3, r7, r1
 8002aea:	781b      	ldrb	r3, [r3, #0]
 8002aec:	2201      	movs	r2, #1
 8002aee:	4013      	ands	r3, r2
 8002af0:	b2db      	uxtb	r3, r3
 8002af2:	2b00      	cmp	r3, #0
 8002af4:	d106      	bne.n	8002b04 <getBaseColour+0x44>
 8002af6:	230f      	movs	r3, #15
 8002af8:	18fb      	adds	r3, r7, r3
 8002afa:	781b      	ldrb	r3, [r3, #0]
 8002afc:	4a0c      	ldr	r2, [pc, #48]	; (8002b30 <getBaseColour+0x70>)
 8002afe:	21c0      	movs	r1, #192	; 0xc0
 8002b00:	54d1      	strb	r1, [r2, r3]
 8002b02:	e005      	b.n	8002b10 <getBaseColour+0x50>
		else b_colour[j] = SPI_one;
 8002b04:	230f      	movs	r3, #15
 8002b06:	18fb      	adds	r3, r7, r3
 8002b08:	781b      	ldrb	r3, [r3, #0]
 8002b0a:	4a09      	ldr	r2, [pc, #36]	; (8002b30 <getBaseColour+0x70>)
 8002b0c:	21f8      	movs	r1, #248	; 0xf8
 8002b0e:	54d1      	strb	r1, [r2, r3]
	for (uint8_t j=0; j<8; j++) {
 8002b10:	210f      	movs	r1, #15
 8002b12:	187b      	adds	r3, r7, r1
 8002b14:	781a      	ldrb	r2, [r3, #0]
 8002b16:	187b      	adds	r3, r7, r1
 8002b18:	3201      	adds	r2, #1
 8002b1a:	701a      	strb	r2, [r3, #0]
 8002b1c:	230f      	movs	r3, #15
 8002b1e:	18fb      	adds	r3, r7, r3
 8002b20:	781b      	ldrb	r3, [r3, #0]
 8002b22:	2b07      	cmp	r3, #7
 8002b24:	d9d7      	bls.n	8002ad6 <getBaseColour+0x16>
	}
}
 8002b26:	46c0      	nop			; (mov r8, r8)
 8002b28:	46bd      	mov	sp, r7
 8002b2a:	b004      	add	sp, #16
 8002b2c:	bd80      	pop	{r7, pc}
 8002b2e:	46c0      	nop			; (mov r8, r8)
 8002b30:	200005ac 	.word	0x200005ac

08002b34 <SPI_SEND_WSBUF>:

void SPI_SEND_WSBUF(uint8_t * buf, uint16_t size) {
 8002b34:	b590      	push	{r4, r7, lr}
 8002b36:	b085      	sub	sp, #20
 8002b38:	af00      	add	r7, sp, #0
 8002b3a:	6078      	str	r0, [r7, #4]
 8002b3c:	000a      	movs	r2, r1
 8002b3e:	1cbb      	adds	r3, r7, #2
 8002b40:	801a      	strh	r2, [r3, #0]
	for(uint16_t i = 0; i<(WS_NUMBER*24); i++) {
 8002b42:	230e      	movs	r3, #14
 8002b44:	18fb      	adds	r3, r7, r3
 8002b46:	2200      	movs	r2, #0
 8002b48:	801a      	strh	r2, [r3, #0]
 8002b4a:	e00c      	b.n	8002b66 <SPI_SEND_WSBUF+0x32>
		SpiLed_Send(LED_buf[i]);
 8002b4c:	240e      	movs	r4, #14
 8002b4e:	193b      	adds	r3, r7, r4
 8002b50:	881b      	ldrh	r3, [r3, #0]
 8002b52:	4a0a      	ldr	r2, [pc, #40]	; (8002b7c <SPI_SEND_WSBUF+0x48>)
 8002b54:	5cd3      	ldrb	r3, [r2, r3]
 8002b56:	0018      	movs	r0, r3
 8002b58:	f000 f814 	bl	8002b84 <SpiLed_Send>
	for(uint16_t i = 0; i<(WS_NUMBER*24); i++) {
 8002b5c:	193b      	adds	r3, r7, r4
 8002b5e:	881a      	ldrh	r2, [r3, #0]
 8002b60:	193b      	adds	r3, r7, r4
 8002b62:	3201      	adds	r2, #1
 8002b64:	801a      	strh	r2, [r3, #0]
 8002b66:	230e      	movs	r3, #14
 8002b68:	18fb      	adds	r3, r7, r3
 8002b6a:	881b      	ldrh	r3, [r3, #0]
 8002b6c:	4a04      	ldr	r2, [pc, #16]	; (8002b80 <SPI_SEND_WSBUF+0x4c>)
 8002b6e:	4293      	cmp	r3, r2
 8002b70:	d9ec      	bls.n	8002b4c <SPI_SEND_WSBUF+0x18>
	}
}
 8002b72:	46c0      	nop			; (mov r8, r8)
 8002b74:	46bd      	mov	sp, r7
 8002b76:	b005      	add	sp, #20
 8002b78:	bd90      	pop	{r4, r7, pc}
 8002b7a:	46c0      	nop			; (mov r8, r8)
 8002b7c:	2000006c 	.word	0x2000006c
 8002b80:	0000050f 	.word	0x0000050f

08002b84 <SpiLed_Send>:

void SpiLed_Send(uint8_t data) {
 8002b84:	b580      	push	{r7, lr}
 8002b86:	b082      	sub	sp, #8
 8002b88:	af00      	add	r7, sp, #0
 8002b8a:	0002      	movs	r2, r0
 8002b8c:	1dfb      	adds	r3, r7, #7
 8002b8e:	701a      	strb	r2, [r3, #0]
	while( !(SPI1->SR & SPI_SR_TXE) );
 8002b90:	46c0      	nop			; (mov r8, r8)
 8002b92:	4b06      	ldr	r3, [pc, #24]	; (8002bac <SpiLed_Send+0x28>)
 8002b94:	689b      	ldr	r3, [r3, #8]
 8002b96:	2202      	movs	r2, #2
 8002b98:	4013      	ands	r3, r2
 8002b9a:	d0fa      	beq.n	8002b92 <SpiLed_Send+0xe>
	SPI1->DR = data;
 8002b9c:	4b03      	ldr	r3, [pc, #12]	; (8002bac <SpiLed_Send+0x28>)
 8002b9e:	1dfa      	adds	r2, r7, #7
 8002ba0:	7812      	ldrb	r2, [r2, #0]
 8002ba2:	60da      	str	r2, [r3, #12]
}
 8002ba4:	46c0      	nop			; (mov r8, r8)
 8002ba6:	46bd      	mov	sp, r7
 8002ba8:	b002      	add	sp, #8
 8002baa:	bd80      	pop	{r7, pc}
 8002bac:	40013000 	.word	0x40013000

08002bb0 <assignColour>:

// Update colour variable passed depending on a time (#define in clock.h file)
void assignColour(uint8_t ht, uint8_t hu, uint8_t * r, uint8_t * g, uint8_t * b) {
 8002bb0:	b590      	push	{r4, r7, lr}
 8002bb2:	b087      	sub	sp, #28
 8002bb4:	af00      	add	r7, sp, #0
 8002bb6:	60ba      	str	r2, [r7, #8]
 8002bb8:	607b      	str	r3, [r7, #4]
 8002bba:	240f      	movs	r4, #15
 8002bbc:	193b      	adds	r3, r7, r4
 8002bbe:	1c02      	adds	r2, r0, #0
 8002bc0:	701a      	strb	r2, [r3, #0]
 8002bc2:	200e      	movs	r0, #14
 8002bc4:	183b      	adds	r3, r7, r0
 8002bc6:	1c0a      	adds	r2, r1, #0
 8002bc8:	701a      	strb	r2, [r3, #0]
	uint8_t hr = 10*(ht) + hu;	// Hour in decimal format
 8002bca:	193b      	adds	r3, r7, r4
 8002bcc:	781b      	ldrb	r3, [r3, #0]
 8002bce:	1c1a      	adds	r2, r3, #0
 8002bd0:	0092      	lsls	r2, r2, #2
 8002bd2:	18d3      	adds	r3, r2, r3
 8002bd4:	18db      	adds	r3, r3, r3
 8002bd6:	b2d9      	uxtb	r1, r3
 8002bd8:	2417      	movs	r4, #23
 8002bda:	193b      	adds	r3, r7, r4
 8002bdc:	183a      	adds	r2, r7, r0
 8002bde:	7812      	ldrb	r2, [r2, #0]
 8002be0:	188a      	adds	r2, r1, r2
 8002be2:	701a      	strb	r2, [r3, #0]
	*r=0; *g=0; *b=0;
 8002be4:	68bb      	ldr	r3, [r7, #8]
 8002be6:	2200      	movs	r2, #0
 8002be8:	701a      	strb	r2, [r3, #0]
 8002bea:	687b      	ldr	r3, [r7, #4]
 8002bec:	2200      	movs	r2, #0
 8002bee:	701a      	strb	r2, [r3, #0]
 8002bf0:	6abb      	ldr	r3, [r7, #40]	; 0x28
 8002bf2:	2200      	movs	r2, #0
 8002bf4:	701a      	strb	r2, [r3, #0]
	if (hr >= 6 && hr < 12) *r = (R_T1/brg_div);
 8002bf6:	193b      	adds	r3, r7, r4
 8002bf8:	781b      	ldrb	r3, [r3, #0]
 8002bfa:	2b05      	cmp	r3, #5
 8002bfc:	d910      	bls.n	8002c20 <assignColour+0x70>
 8002bfe:	2317      	movs	r3, #23
 8002c00:	18fb      	adds	r3, r7, r3
 8002c02:	781b      	ldrb	r3, [r3, #0]
 8002c04:	2b0b      	cmp	r3, #11
 8002c06:	d80b      	bhi.n	8002c20 <assignColour+0x70>
 8002c08:	4bac      	ldr	r3, [pc, #688]	; (8002ebc <assignColour+0x30c>)
 8002c0a:	781b      	ldrb	r3, [r3, #0]
 8002c0c:	b2db      	uxtb	r3, r3
 8002c0e:	0019      	movs	r1, r3
 8002c10:	20a0      	movs	r0, #160	; 0xa0
 8002c12:	f7fd fb01 	bl	8000218 <__divsi3>
 8002c16:	0003      	movs	r3, r0
 8002c18:	b2da      	uxtb	r2, r3
 8002c1a:	68bb      	ldr	r3, [r7, #8]
 8002c1c:	701a      	strb	r2, [r3, #0]
 8002c1e:	e060      	b.n	8002ce2 <assignColour+0x132>
	else if (hr >= 12 && hr < 18) *r = (R_T2/brg_div);
 8002c20:	2317      	movs	r3, #23
 8002c22:	18fb      	adds	r3, r7, r3
 8002c24:	781b      	ldrb	r3, [r3, #0]
 8002c26:	2b0b      	cmp	r3, #11
 8002c28:	d910      	bls.n	8002c4c <assignColour+0x9c>
 8002c2a:	2317      	movs	r3, #23
 8002c2c:	18fb      	adds	r3, r7, r3
 8002c2e:	781b      	ldrb	r3, [r3, #0]
 8002c30:	2b11      	cmp	r3, #17
 8002c32:	d80b      	bhi.n	8002c4c <assignColour+0x9c>
 8002c34:	4ba1      	ldr	r3, [pc, #644]	; (8002ebc <assignColour+0x30c>)
 8002c36:	781b      	ldrb	r3, [r3, #0]
 8002c38:	b2db      	uxtb	r3, r3
 8002c3a:	0019      	movs	r1, r3
 8002c3c:	2064      	movs	r0, #100	; 0x64
 8002c3e:	f7fd faeb 	bl	8000218 <__divsi3>
 8002c42:	0003      	movs	r3, r0
 8002c44:	b2da      	uxtb	r2, r3
 8002c46:	68bb      	ldr	r3, [r7, #8]
 8002c48:	701a      	strb	r2, [r3, #0]
 8002c4a:	e04a      	b.n	8002ce2 <assignColour+0x132>
	else if (hr >= 18 && hr < 21) *r = (R_T3/brg_div);
 8002c4c:	2317      	movs	r3, #23
 8002c4e:	18fb      	adds	r3, r7, r3
 8002c50:	781b      	ldrb	r3, [r3, #0]
 8002c52:	2b11      	cmp	r3, #17
 8002c54:	d910      	bls.n	8002c78 <assignColour+0xc8>
 8002c56:	2317      	movs	r3, #23
 8002c58:	18fb      	adds	r3, r7, r3
 8002c5a:	781b      	ldrb	r3, [r3, #0]
 8002c5c:	2b14      	cmp	r3, #20
 8002c5e:	d80b      	bhi.n	8002c78 <assignColour+0xc8>
 8002c60:	4b96      	ldr	r3, [pc, #600]	; (8002ebc <assignColour+0x30c>)
 8002c62:	781b      	ldrb	r3, [r3, #0]
 8002c64:	b2db      	uxtb	r3, r3
 8002c66:	0019      	movs	r1, r3
 8002c68:	20aa      	movs	r0, #170	; 0xaa
 8002c6a:	f7fd fad5 	bl	8000218 <__divsi3>
 8002c6e:	0003      	movs	r3, r0
 8002c70:	b2da      	uxtb	r2, r3
 8002c72:	68bb      	ldr	r3, [r7, #8]
 8002c74:	701a      	strb	r2, [r3, #0]
 8002c76:	e034      	b.n	8002ce2 <assignColour+0x132>
	else if (hr >= 21 && hr < 23) *r = (R_T4/brg_div);
 8002c78:	2317      	movs	r3, #23
 8002c7a:	18fb      	adds	r3, r7, r3
 8002c7c:	781b      	ldrb	r3, [r3, #0]
 8002c7e:	2b14      	cmp	r3, #20
 8002c80:	d910      	bls.n	8002ca4 <assignColour+0xf4>
 8002c82:	2317      	movs	r3, #23
 8002c84:	18fb      	adds	r3, r7, r3
 8002c86:	781b      	ldrb	r3, [r3, #0]
 8002c88:	2b16      	cmp	r3, #22
 8002c8a:	d80b      	bhi.n	8002ca4 <assignColour+0xf4>
 8002c8c:	4b8b      	ldr	r3, [pc, #556]	; (8002ebc <assignColour+0x30c>)
 8002c8e:	781b      	ldrb	r3, [r3, #0]
 8002c90:	b2db      	uxtb	r3, r3
 8002c92:	0019      	movs	r1, r3
 8002c94:	209b      	movs	r0, #155	; 0x9b
 8002c96:	f7fd fabf 	bl	8000218 <__divsi3>
 8002c9a:	0003      	movs	r3, r0
 8002c9c:	b2da      	uxtb	r2, r3
 8002c9e:	68bb      	ldr	r3, [r7, #8]
 8002ca0:	701a      	strb	r2, [r3, #0]
 8002ca2:	e01e      	b.n	8002ce2 <assignColour+0x132>
	else if (hr >= 23 && hr < 5) *r = (R_T5/brg_div);
 8002ca4:	2317      	movs	r3, #23
 8002ca6:	18fb      	adds	r3, r7, r3
 8002ca8:	781b      	ldrb	r3, [r3, #0]
 8002caa:	2b16      	cmp	r3, #22
 8002cac:	d90a      	bls.n	8002cc4 <assignColour+0x114>
 8002cae:	2317      	movs	r3, #23
 8002cb0:	18fb      	adds	r3, r7, r3
 8002cb2:	781b      	ldrb	r3, [r3, #0]
 8002cb4:	2b04      	cmp	r3, #4
 8002cb6:	d805      	bhi.n	8002cc4 <assignColour+0x114>
 8002cb8:	4b80      	ldr	r3, [pc, #512]	; (8002ebc <assignColour+0x30c>)
 8002cba:	781b      	ldrb	r3, [r3, #0]
 8002cbc:	68bb      	ldr	r3, [r7, #8]
 8002cbe:	2200      	movs	r2, #0
 8002cc0:	701a      	strb	r2, [r3, #0]
 8002cc2:	e00e      	b.n	8002ce2 <assignColour+0x132>
	else if (hr >= 5 && hr < 6) *r = (R_T6/brg_div);
 8002cc4:	2317      	movs	r3, #23
 8002cc6:	18fb      	adds	r3, r7, r3
 8002cc8:	781b      	ldrb	r3, [r3, #0]
 8002cca:	2b04      	cmp	r3, #4
 8002ccc:	d909      	bls.n	8002ce2 <assignColour+0x132>
 8002cce:	2317      	movs	r3, #23
 8002cd0:	18fb      	adds	r3, r7, r3
 8002cd2:	781b      	ldrb	r3, [r3, #0]
 8002cd4:	2b05      	cmp	r3, #5
 8002cd6:	d804      	bhi.n	8002ce2 <assignColour+0x132>
 8002cd8:	4b78      	ldr	r3, [pc, #480]	; (8002ebc <assignColour+0x30c>)
 8002cda:	781b      	ldrb	r3, [r3, #0]
 8002cdc:	68bb      	ldr	r3, [r7, #8]
 8002cde:	2200      	movs	r2, #0
 8002ce0:	701a      	strb	r2, [r3, #0]

	if (hr >= 6 && hr < 12) *g = (G_T1/brg_div);
 8002ce2:	2317      	movs	r3, #23
 8002ce4:	18fb      	adds	r3, r7, r3
 8002ce6:	781b      	ldrb	r3, [r3, #0]
 8002ce8:	2b05      	cmp	r3, #5
 8002cea:	d910      	bls.n	8002d0e <assignColour+0x15e>
 8002cec:	2317      	movs	r3, #23
 8002cee:	18fb      	adds	r3, r7, r3
 8002cf0:	781b      	ldrb	r3, [r3, #0]
 8002cf2:	2b0b      	cmp	r3, #11
 8002cf4:	d80b      	bhi.n	8002d0e <assignColour+0x15e>
 8002cf6:	4b71      	ldr	r3, [pc, #452]	; (8002ebc <assignColour+0x30c>)
 8002cf8:	781b      	ldrb	r3, [r3, #0]
 8002cfa:	b2db      	uxtb	r3, r3
 8002cfc:	0019      	movs	r1, r3
 8002cfe:	205f      	movs	r0, #95	; 0x5f
 8002d00:	f7fd fa8a 	bl	8000218 <__divsi3>
 8002d04:	0003      	movs	r3, r0
 8002d06:	b2da      	uxtb	r2, r3
 8002d08:	687b      	ldr	r3, [r7, #4]
 8002d0a:	701a      	strb	r2, [r3, #0]
 8002d0c:	e05a      	b.n	8002dc4 <assignColour+0x214>
	else if (hr >= 12 && hr < 18) *g = (G_T2/brg_div);
 8002d0e:	2317      	movs	r3, #23
 8002d10:	18fb      	adds	r3, r7, r3
 8002d12:	781b      	ldrb	r3, [r3, #0]
 8002d14:	2b0b      	cmp	r3, #11
 8002d16:	d910      	bls.n	8002d3a <assignColour+0x18a>
 8002d18:	2317      	movs	r3, #23
 8002d1a:	18fb      	adds	r3, r7, r3
 8002d1c:	781b      	ldrb	r3, [r3, #0]
 8002d1e:	2b11      	cmp	r3, #17
 8002d20:	d80b      	bhi.n	8002d3a <assignColour+0x18a>
 8002d22:	4b66      	ldr	r3, [pc, #408]	; (8002ebc <assignColour+0x30c>)
 8002d24:	781b      	ldrb	r3, [r3, #0]
 8002d26:	b2db      	uxtb	r3, r3
 8002d28:	0019      	movs	r1, r3
 8002d2a:	209b      	movs	r0, #155	; 0x9b
 8002d2c:	f7fd fa74 	bl	8000218 <__divsi3>
 8002d30:	0003      	movs	r3, r0
 8002d32:	b2da      	uxtb	r2, r3
 8002d34:	687b      	ldr	r3, [r7, #4]
 8002d36:	701a      	strb	r2, [r3, #0]
 8002d38:	e044      	b.n	8002dc4 <assignColour+0x214>
	else if (hr >= 18 && hr < 21) *g = (G_T3/brg_div);
 8002d3a:	2317      	movs	r3, #23
 8002d3c:	18fb      	adds	r3, r7, r3
 8002d3e:	781b      	ldrb	r3, [r3, #0]
 8002d40:	2b11      	cmp	r3, #17
 8002d42:	d910      	bls.n	8002d66 <assignColour+0x1b6>
 8002d44:	2317      	movs	r3, #23
 8002d46:	18fb      	adds	r3, r7, r3
 8002d48:	781b      	ldrb	r3, [r3, #0]
 8002d4a:	2b14      	cmp	r3, #20
 8002d4c:	d80b      	bhi.n	8002d66 <assignColour+0x1b6>
 8002d4e:	4b5b      	ldr	r3, [pc, #364]	; (8002ebc <assignColour+0x30c>)
 8002d50:	781b      	ldrb	r3, [r3, #0]
 8002d52:	b2db      	uxtb	r3, r3
 8002d54:	0019      	movs	r1, r3
 8002d56:	2032      	movs	r0, #50	; 0x32
 8002d58:	f7fd fa5e 	bl	8000218 <__divsi3>
 8002d5c:	0003      	movs	r3, r0
 8002d5e:	b2da      	uxtb	r2, r3
 8002d60:	687b      	ldr	r3, [r7, #4]
 8002d62:	701a      	strb	r2, [r3, #0]
 8002d64:	e02e      	b.n	8002dc4 <assignColour+0x214>
	else if (hr >= 21 && hr < 23) *g = (G_T4/brg_div);
 8002d66:	2317      	movs	r3, #23
 8002d68:	18fb      	adds	r3, r7, r3
 8002d6a:	781b      	ldrb	r3, [r3, #0]
 8002d6c:	2b14      	cmp	r3, #20
 8002d6e:	d90a      	bls.n	8002d86 <assignColour+0x1d6>
 8002d70:	2317      	movs	r3, #23
 8002d72:	18fb      	adds	r3, r7, r3
 8002d74:	781b      	ldrb	r3, [r3, #0]
 8002d76:	2b16      	cmp	r3, #22
 8002d78:	d805      	bhi.n	8002d86 <assignColour+0x1d6>
 8002d7a:	4b50      	ldr	r3, [pc, #320]	; (8002ebc <assignColour+0x30c>)
 8002d7c:	781b      	ldrb	r3, [r3, #0]
 8002d7e:	687b      	ldr	r3, [r7, #4]
 8002d80:	2200      	movs	r2, #0
 8002d82:	701a      	strb	r2, [r3, #0]
 8002d84:	e01e      	b.n	8002dc4 <assignColour+0x214>
	else if (hr >= 23 && hr < 5) *g = (G_T5/brg_div);
 8002d86:	2317      	movs	r3, #23
 8002d88:	18fb      	adds	r3, r7, r3
 8002d8a:	781b      	ldrb	r3, [r3, #0]
 8002d8c:	2b16      	cmp	r3, #22
 8002d8e:	d90a      	bls.n	8002da6 <assignColour+0x1f6>
 8002d90:	2317      	movs	r3, #23
 8002d92:	18fb      	adds	r3, r7, r3
 8002d94:	781b      	ldrb	r3, [r3, #0]
 8002d96:	2b04      	cmp	r3, #4
 8002d98:	d805      	bhi.n	8002da6 <assignColour+0x1f6>
 8002d9a:	4b48      	ldr	r3, [pc, #288]	; (8002ebc <assignColour+0x30c>)
 8002d9c:	781b      	ldrb	r3, [r3, #0]
 8002d9e:	687b      	ldr	r3, [r7, #4]
 8002da0:	2200      	movs	r2, #0
 8002da2:	701a      	strb	r2, [r3, #0]
 8002da4:	e00e      	b.n	8002dc4 <assignColour+0x214>
	else if (hr >= 5 && hr < 6) *g = (G_T6/brg_div);
 8002da6:	2317      	movs	r3, #23
 8002da8:	18fb      	adds	r3, r7, r3
 8002daa:	781b      	ldrb	r3, [r3, #0]
 8002dac:	2b04      	cmp	r3, #4
 8002dae:	d909      	bls.n	8002dc4 <assignColour+0x214>
 8002db0:	2317      	movs	r3, #23
 8002db2:	18fb      	adds	r3, r7, r3
 8002db4:	781b      	ldrb	r3, [r3, #0]
 8002db6:	2b05      	cmp	r3, #5
 8002db8:	d804      	bhi.n	8002dc4 <assignColour+0x214>
 8002dba:	4b40      	ldr	r3, [pc, #256]	; (8002ebc <assignColour+0x30c>)
 8002dbc:	781b      	ldrb	r3, [r3, #0]
 8002dbe:	687b      	ldr	r3, [r7, #4]
 8002dc0:	2200      	movs	r2, #0
 8002dc2:	701a      	strb	r2, [r3, #0]

	if (hr >= 6 && hr < 12) *b = (B_T1/brg_div);
 8002dc4:	2317      	movs	r3, #23
 8002dc6:	18fb      	adds	r3, r7, r3
 8002dc8:	781b      	ldrb	r3, [r3, #0]
 8002dca:	2b05      	cmp	r3, #5
 8002dcc:	d90a      	bls.n	8002de4 <assignColour+0x234>
 8002dce:	2317      	movs	r3, #23
 8002dd0:	18fb      	adds	r3, r7, r3
 8002dd2:	781b      	ldrb	r3, [r3, #0]
 8002dd4:	2b0b      	cmp	r3, #11
 8002dd6:	d805      	bhi.n	8002de4 <assignColour+0x234>
 8002dd8:	4b38      	ldr	r3, [pc, #224]	; (8002ebc <assignColour+0x30c>)
 8002dda:	781b      	ldrb	r3, [r3, #0]
 8002ddc:	6abb      	ldr	r3, [r7, #40]	; 0x28
 8002dde:	2200      	movs	r2, #0
 8002de0:	701a      	strb	r2, [r3, #0]
 8002de2:	e067      	b.n	8002eb4 <assignColour+0x304>
	else if (hr >= 12 && hr < 18) *b = (B_T2/brg_div);
 8002de4:	2317      	movs	r3, #23
 8002de6:	18fb      	adds	r3, r7, r3
 8002de8:	781b      	ldrb	r3, [r3, #0]
 8002dea:	2b0b      	cmp	r3, #11
 8002dec:	d90a      	bls.n	8002e04 <assignColour+0x254>
 8002dee:	2317      	movs	r3, #23
 8002df0:	18fb      	adds	r3, r7, r3
 8002df2:	781b      	ldrb	r3, [r3, #0]
 8002df4:	2b11      	cmp	r3, #17
 8002df6:	d805      	bhi.n	8002e04 <assignColour+0x254>
 8002df8:	4b30      	ldr	r3, [pc, #192]	; (8002ebc <assignColour+0x30c>)
 8002dfa:	781b      	ldrb	r3, [r3, #0]
 8002dfc:	6abb      	ldr	r3, [r7, #40]	; 0x28
 8002dfe:	2200      	movs	r2, #0
 8002e00:	701a      	strb	r2, [r3, #0]
 8002e02:	e057      	b.n	8002eb4 <assignColour+0x304>
	else if (hr >= 18 && hr < 21) *b = (B_T3/brg_div);
 8002e04:	2317      	movs	r3, #23
 8002e06:	18fb      	adds	r3, r7, r3
 8002e08:	781b      	ldrb	r3, [r3, #0]
 8002e0a:	2b11      	cmp	r3, #17
 8002e0c:	d910      	bls.n	8002e30 <assignColour+0x280>
 8002e0e:	2317      	movs	r3, #23
 8002e10:	18fb      	adds	r3, r7, r3
 8002e12:	781b      	ldrb	r3, [r3, #0]
 8002e14:	2b14      	cmp	r3, #20
 8002e16:	d80b      	bhi.n	8002e30 <assignColour+0x280>
 8002e18:	4b28      	ldr	r3, [pc, #160]	; (8002ebc <assignColour+0x30c>)
 8002e1a:	781b      	ldrb	r3, [r3, #0]
 8002e1c:	b2db      	uxtb	r3, r3
 8002e1e:	0019      	movs	r1, r3
 8002e20:	202d      	movs	r0, #45	; 0x2d
 8002e22:	f7fd f9f9 	bl	8000218 <__divsi3>
 8002e26:	0003      	movs	r3, r0
 8002e28:	b2da      	uxtb	r2, r3
 8002e2a:	6abb      	ldr	r3, [r7, #40]	; 0x28
 8002e2c:	701a      	strb	r2, [r3, #0]
 8002e2e:	e041      	b.n	8002eb4 <assignColour+0x304>
	else if (hr >= 21 && hr < 23) *b = (B_T4/brg_div);
 8002e30:	2317      	movs	r3, #23
 8002e32:	18fb      	adds	r3, r7, r3
 8002e34:	781b      	ldrb	r3, [r3, #0]
 8002e36:	2b14      	cmp	r3, #20
 8002e38:	d910      	bls.n	8002e5c <assignColour+0x2ac>
 8002e3a:	2317      	movs	r3, #23
 8002e3c:	18fb      	adds	r3, r7, r3
 8002e3e:	781b      	ldrb	r3, [r3, #0]
 8002e40:	2b16      	cmp	r3, #22
 8002e42:	d80b      	bhi.n	8002e5c <assignColour+0x2ac>
 8002e44:	4b1d      	ldr	r3, [pc, #116]	; (8002ebc <assignColour+0x30c>)
 8002e46:	781b      	ldrb	r3, [r3, #0]
 8002e48:	b2db      	uxtb	r3, r3
 8002e4a:	0019      	movs	r1, r3
 8002e4c:	2064      	movs	r0, #100	; 0x64
 8002e4e:	f7fd f9e3 	bl	8000218 <__divsi3>
 8002e52:	0003      	movs	r3, r0
 8002e54:	b2da      	uxtb	r2, r3
 8002e56:	6abb      	ldr	r3, [r7, #40]	; 0x28
 8002e58:	701a      	strb	r2, [r3, #0]
 8002e5a:	e02b      	b.n	8002eb4 <assignColour+0x304>
	else if (hr >= 23 || hr < 5) *b = (B_T5/brg_div);
 8002e5c:	2317      	movs	r3, #23
 8002e5e:	18fb      	adds	r3, r7, r3
 8002e60:	781b      	ldrb	r3, [r3, #0]
 8002e62:	2b16      	cmp	r3, #22
 8002e64:	d804      	bhi.n	8002e70 <assignColour+0x2c0>
 8002e66:	2317      	movs	r3, #23
 8002e68:	18fb      	adds	r3, r7, r3
 8002e6a:	781b      	ldrb	r3, [r3, #0]
 8002e6c:	2b04      	cmp	r3, #4
 8002e6e:	d80b      	bhi.n	8002e88 <assignColour+0x2d8>
 8002e70:	4b12      	ldr	r3, [pc, #72]	; (8002ebc <assignColour+0x30c>)
 8002e72:	781b      	ldrb	r3, [r3, #0]
 8002e74:	b2db      	uxtb	r3, r3
 8002e76:	0019      	movs	r1, r3
 8002e78:	20aa      	movs	r0, #170	; 0xaa
 8002e7a:	f7fd f9cd 	bl	8000218 <__divsi3>
 8002e7e:	0003      	movs	r3, r0
 8002e80:	b2da      	uxtb	r2, r3
 8002e82:	6abb      	ldr	r3, [r7, #40]	; 0x28
 8002e84:	701a      	strb	r2, [r3, #0]
 8002e86:	e015      	b.n	8002eb4 <assignColour+0x304>
	else if (hr >= 5 && hr < 6) *b = (B_T6/brg_div);
 8002e88:	2317      	movs	r3, #23
 8002e8a:	18fb      	adds	r3, r7, r3
 8002e8c:	781b      	ldrb	r3, [r3, #0]
 8002e8e:	2b04      	cmp	r3, #4
 8002e90:	d910      	bls.n	8002eb4 <assignColour+0x304>
 8002e92:	2317      	movs	r3, #23
 8002e94:	18fb      	adds	r3, r7, r3
 8002e96:	781b      	ldrb	r3, [r3, #0]
 8002e98:	2b05      	cmp	r3, #5
 8002e9a:	d80b      	bhi.n	8002eb4 <assignColour+0x304>
 8002e9c:	4b07      	ldr	r3, [pc, #28]	; (8002ebc <assignColour+0x30c>)
 8002e9e:	781b      	ldrb	r3, [r3, #0]
 8002ea0:	b2db      	uxtb	r3, r3
 8002ea2:	0019      	movs	r1, r3
 8002ea4:	20aa      	movs	r0, #170	; 0xaa
 8002ea6:	f7fd f9b7 	bl	8000218 <__divsi3>
 8002eaa:	0003      	movs	r3, r0
 8002eac:	b2da      	uxtb	r2, r3
 8002eae:	6abb      	ldr	r3, [r7, #40]	; 0x28
 8002eb0:	701a      	strb	r2, [r3, #0]
}
 8002eb2:	e7ff      	b.n	8002eb4 <assignColour+0x304>
 8002eb4:	46c0      	nop			; (mov r8, r8)
 8002eb6:	46bd      	mov	sp, r7
 8002eb8:	b007      	add	sp, #28
 8002eba:	bd90      	pop	{r4, r7, pc}
 8002ebc:	20000024 	.word	0x20000024

08002ec0 <ADCCompress>:

uint8_t ADCCompress (uint16_t adc) {
 8002ec0:	b580      	push	{r7, lr}
 8002ec2:	b082      	sub	sp, #8
 8002ec4:	af00      	add	r7, sp, #0
 8002ec6:	0002      	movs	r2, r0
 8002ec8:	1dbb      	adds	r3, r7, #6
 8002eca:	801a      	strh	r2, [r3, #0]

	if (adc > 0 && adc < 1801) return 2;		// Much light
 8002ecc:	1dbb      	adds	r3, r7, #6
 8002ece:	881b      	ldrh	r3, [r3, #0]
 8002ed0:	2b00      	cmp	r3, #0
 8002ed2:	d007      	beq.n	8002ee4 <ADCCompress+0x24>
 8002ed4:	1dbb      	adds	r3, r7, #6
 8002ed6:	881a      	ldrh	r2, [r3, #0]
 8002ed8:	23e1      	movs	r3, #225	; 0xe1
 8002eda:	00db      	lsls	r3, r3, #3
 8002edc:	429a      	cmp	r2, r3
 8002ede:	d801      	bhi.n	8002ee4 <ADCCompress+0x24>
 8002ee0:	2302      	movs	r3, #2
 8002ee2:	e06c      	b.n	8002fbe <ADCCompress+0xfe>
	if (adc > 1800 && adc < 2101) return 3;
 8002ee4:	1dbb      	adds	r3, r7, #6
 8002ee6:	881a      	ldrh	r2, [r3, #0]
 8002ee8:	23e1      	movs	r3, #225	; 0xe1
 8002eea:	00db      	lsls	r3, r3, #3
 8002eec:	429a      	cmp	r2, r3
 8002eee:	d906      	bls.n	8002efe <ADCCompress+0x3e>
 8002ef0:	1dbb      	adds	r3, r7, #6
 8002ef2:	881b      	ldrh	r3, [r3, #0]
 8002ef4:	4a34      	ldr	r2, [pc, #208]	; (8002fc8 <ADCCompress+0x108>)
 8002ef6:	4293      	cmp	r3, r2
 8002ef8:	d801      	bhi.n	8002efe <ADCCompress+0x3e>
 8002efa:	2303      	movs	r3, #3
 8002efc:	e05f      	b.n	8002fbe <ADCCompress+0xfe>
	if (adc > 2100 && adc < 2401) return 5;
 8002efe:	1dbb      	adds	r3, r7, #6
 8002f00:	881b      	ldrh	r3, [r3, #0]
 8002f02:	4a31      	ldr	r2, [pc, #196]	; (8002fc8 <ADCCompress+0x108>)
 8002f04:	4293      	cmp	r3, r2
 8002f06:	d907      	bls.n	8002f18 <ADCCompress+0x58>
 8002f08:	1dbb      	adds	r3, r7, #6
 8002f0a:	881a      	ldrh	r2, [r3, #0]
 8002f0c:	2396      	movs	r3, #150	; 0x96
 8002f0e:	011b      	lsls	r3, r3, #4
 8002f10:	429a      	cmp	r2, r3
 8002f12:	d801      	bhi.n	8002f18 <ADCCompress+0x58>
 8002f14:	2305      	movs	r3, #5
 8002f16:	e052      	b.n	8002fbe <ADCCompress+0xfe>
	if (adc > 2400 && adc < 2701) return 7;
 8002f18:	1dbb      	adds	r3, r7, #6
 8002f1a:	881a      	ldrh	r2, [r3, #0]
 8002f1c:	2396      	movs	r3, #150	; 0x96
 8002f1e:	011b      	lsls	r3, r3, #4
 8002f20:	429a      	cmp	r2, r3
 8002f22:	d906      	bls.n	8002f32 <ADCCompress+0x72>
 8002f24:	1dbb      	adds	r3, r7, #6
 8002f26:	881b      	ldrh	r3, [r3, #0]
 8002f28:	4a28      	ldr	r2, [pc, #160]	; (8002fcc <ADCCompress+0x10c>)
 8002f2a:	4293      	cmp	r3, r2
 8002f2c:	d801      	bhi.n	8002f32 <ADCCompress+0x72>
 8002f2e:	2307      	movs	r3, #7
 8002f30:	e045      	b.n	8002fbe <ADCCompress+0xfe>
	if (adc > 2700 && adc < 3001) return 8;
 8002f32:	1dbb      	adds	r3, r7, #6
 8002f34:	881b      	ldrh	r3, [r3, #0]
 8002f36:	4a25      	ldr	r2, [pc, #148]	; (8002fcc <ADCCompress+0x10c>)
 8002f38:	4293      	cmp	r3, r2
 8002f3a:	d906      	bls.n	8002f4a <ADCCompress+0x8a>
 8002f3c:	1dbb      	adds	r3, r7, #6
 8002f3e:	881b      	ldrh	r3, [r3, #0]
 8002f40:	4a23      	ldr	r2, [pc, #140]	; (8002fd0 <ADCCompress+0x110>)
 8002f42:	4293      	cmp	r3, r2
 8002f44:	d801      	bhi.n	8002f4a <ADCCompress+0x8a>
 8002f46:	2308      	movs	r3, #8
 8002f48:	e039      	b.n	8002fbe <ADCCompress+0xfe>
	if (adc > 3000 && adc < 3301) return 10;
 8002f4a:	1dbb      	adds	r3, r7, #6
 8002f4c:	881b      	ldrh	r3, [r3, #0]
 8002f4e:	4a20      	ldr	r2, [pc, #128]	; (8002fd0 <ADCCompress+0x110>)
 8002f50:	4293      	cmp	r3, r2
 8002f52:	d906      	bls.n	8002f62 <ADCCompress+0xa2>
 8002f54:	1dbb      	adds	r3, r7, #6
 8002f56:	881b      	ldrh	r3, [r3, #0]
 8002f58:	4a1e      	ldr	r2, [pc, #120]	; (8002fd4 <ADCCompress+0x114>)
 8002f5a:	4293      	cmp	r3, r2
 8002f5c:	d801      	bhi.n	8002f62 <ADCCompress+0xa2>
 8002f5e:	230a      	movs	r3, #10
 8002f60:	e02d      	b.n	8002fbe <ADCCompress+0xfe>
	if (adc > 3300 && adc < 3601) return 12;
 8002f62:	1dbb      	adds	r3, r7, #6
 8002f64:	881b      	ldrh	r3, [r3, #0]
 8002f66:	4a1b      	ldr	r2, [pc, #108]	; (8002fd4 <ADCCompress+0x114>)
 8002f68:	4293      	cmp	r3, r2
 8002f6a:	d907      	bls.n	8002f7c <ADCCompress+0xbc>
 8002f6c:	1dbb      	adds	r3, r7, #6
 8002f6e:	881a      	ldrh	r2, [r3, #0]
 8002f70:	23e1      	movs	r3, #225	; 0xe1
 8002f72:	011b      	lsls	r3, r3, #4
 8002f74:	429a      	cmp	r2, r3
 8002f76:	d801      	bhi.n	8002f7c <ADCCompress+0xbc>
 8002f78:	230c      	movs	r3, #12
 8002f7a:	e020      	b.n	8002fbe <ADCCompress+0xfe>
	if (adc > 3600 && adc < 3901) return 14;
 8002f7c:	1dbb      	adds	r3, r7, #6
 8002f7e:	881a      	ldrh	r2, [r3, #0]
 8002f80:	23e1      	movs	r3, #225	; 0xe1
 8002f82:	011b      	lsls	r3, r3, #4
 8002f84:	429a      	cmp	r2, r3
 8002f86:	d906      	bls.n	8002f96 <ADCCompress+0xd6>
 8002f88:	1dbb      	adds	r3, r7, #6
 8002f8a:	881b      	ldrh	r3, [r3, #0]
 8002f8c:	4a12      	ldr	r2, [pc, #72]	; (8002fd8 <ADCCompress+0x118>)
 8002f8e:	4293      	cmp	r3, r2
 8002f90:	d801      	bhi.n	8002f96 <ADCCompress+0xd6>
 8002f92:	230e      	movs	r3, #14
 8002f94:	e013      	b.n	8002fbe <ADCCompress+0xfe>
	if (adc > 3900 && adc < 4201) return 20;	// No light
 8002f96:	1dbb      	adds	r3, r7, #6
 8002f98:	881b      	ldrh	r3, [r3, #0]
 8002f9a:	4a0f      	ldr	r2, [pc, #60]	; (8002fd8 <ADCCompress+0x118>)
 8002f9c:	4293      	cmp	r3, r2
 8002f9e:	d906      	bls.n	8002fae <ADCCompress+0xee>
 8002fa0:	1dbb      	adds	r3, r7, #6
 8002fa2:	881b      	ldrh	r3, [r3, #0]
 8002fa4:	4a0d      	ldr	r2, [pc, #52]	; (8002fdc <ADCCompress+0x11c>)
 8002fa6:	4293      	cmp	r3, r2
 8002fa8:	d801      	bhi.n	8002fae <ADCCompress+0xee>
 8002faa:	2314      	movs	r3, #20
 8002fac:	e007      	b.n	8002fbe <ADCCompress+0xfe>
	if (adc > 4200) return 22;
 8002fae:	1dbb      	adds	r3, r7, #6
 8002fb0:	881b      	ldrh	r3, [r3, #0]
 8002fb2:	4a0a      	ldr	r2, [pc, #40]	; (8002fdc <ADCCompress+0x11c>)
 8002fb4:	4293      	cmp	r3, r2
 8002fb6:	d901      	bls.n	8002fbc <ADCCompress+0xfc>
 8002fb8:	2316      	movs	r3, #22
 8002fba:	e000      	b.n	8002fbe <ADCCompress+0xfe>

	return 16;	// If LDR malfunction, return default (16)
 8002fbc:	2310      	movs	r3, #16
}
 8002fbe:	0018      	movs	r0, r3
 8002fc0:	46bd      	mov	sp, r7
 8002fc2:	b002      	add	sp, #8
 8002fc4:	bd80      	pop	{r7, pc}
 8002fc6:	46c0      	nop			; (mov r8, r8)
 8002fc8:	00000834 	.word	0x00000834
 8002fcc:	00000a8c 	.word	0x00000a8c
 8002fd0:	00000bb8 	.word	0x00000bb8
 8002fd4:	00000ce4 	.word	0x00000ce4
 8002fd8:	00000f3c 	.word	0x00000f3c
 8002fdc:	00001068 	.word	0x00001068

08002fe0 <loveyou>:


void loveyou(char * msg) {
 8002fe0:	b580      	push	{r7, lr}
 8002fe2:	b084      	sub	sp, #16
 8002fe4:	af02      	add	r7, sp, #8
 8002fe6:	6078      	str	r0, [r7, #4]
	// Display heart
	FillLEDArray(LED_buf, 0, 0, 0);
 8002fe8:	4846      	ldr	r0, [pc, #280]	; (8003104 <loveyou+0x124>)
 8002fea:	2300      	movs	r3, #0
 8002fec:	2200      	movs	r2, #0
 8002fee:	2100      	movs	r1, #0
 8002ff0:	f7ff fbf6 	bl	80027e0 <FillLEDArray>
	FillLEDSegment(LED_buf, 14, 14, 30, 0, 0);
 8002ff4:	4843      	ldr	r0, [pc, #268]	; (8003104 <loveyou+0x124>)
 8002ff6:	2300      	movs	r3, #0
 8002ff8:	9301      	str	r3, [sp, #4]
 8002ffa:	2300      	movs	r3, #0
 8002ffc:	9300      	str	r3, [sp, #0]
 8002ffe:	231e      	movs	r3, #30
 8003000:	220e      	movs	r2, #14
 8003002:	210e      	movs	r1, #14
 8003004:	f7ff fc5a 	bl	80028bc <FillLEDSegment>
	FillLEDSegment(LED_buf, 16, 16, 30, 0, 0);
 8003008:	483e      	ldr	r0, [pc, #248]	; (8003104 <loveyou+0x124>)
 800300a:	2300      	movs	r3, #0
 800300c:	9301      	str	r3, [sp, #4]
 800300e:	2300      	movs	r3, #0
 8003010:	9300      	str	r3, [sp, #0]
 8003012:	231e      	movs	r3, #30
 8003014:	2210      	movs	r2, #16
 8003016:	2110      	movs	r1, #16
 8003018:	f7ff fc50 	bl	80028bc <FillLEDSegment>
	FillLEDSegment(LED_buf, 20, 20, 30, 0, 0);
 800301c:	4839      	ldr	r0, [pc, #228]	; (8003104 <loveyou+0x124>)
 800301e:	2300      	movs	r3, #0
 8003020:	9301      	str	r3, [sp, #4]
 8003022:	2300      	movs	r3, #0
 8003024:	9300      	str	r3, [sp, #0]
 8003026:	231e      	movs	r3, #30
 8003028:	2214      	movs	r2, #20
 800302a:	2114      	movs	r1, #20
 800302c:	f7ff fc46 	bl	80028bc <FillLEDSegment>
	FillLEDSegment(LED_buf, 22, 24, 30, 0, 0);
 8003030:	4834      	ldr	r0, [pc, #208]	; (8003104 <loveyou+0x124>)
 8003032:	2300      	movs	r3, #0
 8003034:	9301      	str	r3, [sp, #4]
 8003036:	2300      	movs	r3, #0
 8003038:	9300      	str	r3, [sp, #0]
 800303a:	231e      	movs	r3, #30
 800303c:	2218      	movs	r2, #24
 800303e:	2116      	movs	r1, #22
 8003040:	f7ff fc3c 	bl	80028bc <FillLEDSegment>
	FillLEDSegment(LED_buf, 24, 24, 30, 0, 0);
 8003044:	482f      	ldr	r0, [pc, #188]	; (8003104 <loveyou+0x124>)
 8003046:	2300      	movs	r3, #0
 8003048:	9301      	str	r3, [sp, #4]
 800304a:	2300      	movs	r3, #0
 800304c:	9300      	str	r3, [sp, #0]
 800304e:	231e      	movs	r3, #30
 8003050:	2218      	movs	r2, #24
 8003052:	2118      	movs	r1, #24
 8003054:	f7ff fc32 	bl	80028bc <FillLEDSegment>
	FillLEDSegment(LED_buf, 26, 26, 30, 0, 0);
 8003058:	482a      	ldr	r0, [pc, #168]	; (8003104 <loveyou+0x124>)
 800305a:	2300      	movs	r3, #0
 800305c:	9301      	str	r3, [sp, #4]
 800305e:	2300      	movs	r3, #0
 8003060:	9300      	str	r3, [sp, #0]
 8003062:	231e      	movs	r3, #30
 8003064:	221a      	movs	r2, #26
 8003066:	211a      	movs	r1, #26
 8003068:	f7ff fc28 	bl	80028bc <FillLEDSegment>
	FillLEDSegment(LED_buf, 29, 29, 30, 0, 0);
 800306c:	4825      	ldr	r0, [pc, #148]	; (8003104 <loveyou+0x124>)
 800306e:	2300      	movs	r3, #0
 8003070:	9301      	str	r3, [sp, #4]
 8003072:	2300      	movs	r3, #0
 8003074:	9300      	str	r3, [sp, #0]
 8003076:	231e      	movs	r3, #30
 8003078:	221d      	movs	r2, #29
 800307a:	211d      	movs	r1, #29
 800307c:	f7ff fc1e 	bl	80028bc <FillLEDSegment>
	FillLEDSegment(LED_buf, 31, 33, 30, 0, 0);
 8003080:	4820      	ldr	r0, [pc, #128]	; (8003104 <loveyou+0x124>)
 8003082:	2300      	movs	r3, #0
 8003084:	9301      	str	r3, [sp, #4]
 8003086:	2300      	movs	r3, #0
 8003088:	9300      	str	r3, [sp, #0]
 800308a:	231e      	movs	r3, #30
 800308c:	2221      	movs	r2, #33	; 0x21
 800308e:	211f      	movs	r1, #31
 8003090:	f7ff fc14 	bl	80028bc <FillLEDSegment>
	FillLEDSegment(LED_buf, 35, 35, 30, 0, 0);
 8003094:	481b      	ldr	r0, [pc, #108]	; (8003104 <loveyou+0x124>)
 8003096:	2300      	movs	r3, #0
 8003098:	9301      	str	r3, [sp, #4]
 800309a:	2300      	movs	r3, #0
 800309c:	9300      	str	r3, [sp, #0]
 800309e:	231e      	movs	r3, #30
 80030a0:	2223      	movs	r2, #35	; 0x23
 80030a2:	2123      	movs	r1, #35	; 0x23
 80030a4:	f7ff fc0a 	bl	80028bc <FillLEDSegment>
	FillLEDSegment(LED_buf, 39, 39, 30, 0, 0);
 80030a8:	4816      	ldr	r0, [pc, #88]	; (8003104 <loveyou+0x124>)
 80030aa:	2300      	movs	r3, #0
 80030ac:	9301      	str	r3, [sp, #4]
 80030ae:	2300      	movs	r3, #0
 80030b0:	9300      	str	r3, [sp, #0]
 80030b2:	231e      	movs	r3, #30
 80030b4:	2227      	movs	r2, #39	; 0x27
 80030b6:	2127      	movs	r1, #39	; 0x27
 80030b8:	f7ff fc00 	bl	80028bc <FillLEDSegment>
	SPI_SEND_WSBUF(LED_buf, sizeof(LED_buf));
 80030bc:	23a2      	movs	r3, #162	; 0xa2
 80030be:	00da      	lsls	r2, r3, #3
 80030c0:	4b10      	ldr	r3, [pc, #64]	; (8003104 <loveyou+0x124>)
 80030c2:	0011      	movs	r1, r2
 80030c4:	0018      	movs	r0, r3
 80030c6:	f7ff fd35 	bl	8002b34 <SPI_SEND_WSBUF>
	// Scroll loveyou message
	if(msg != NULL) ScrollLed(msg, 400, sizeof(msg));
 80030ca:	687b      	ldr	r3, [r7, #4]
 80030cc:	2b00      	cmp	r3, #0
 80030ce:	d006      	beq.n	80030de <loveyou+0xfe>
 80030d0:	23c8      	movs	r3, #200	; 0xc8
 80030d2:	0059      	lsls	r1, r3, #1
 80030d4:	687b      	ldr	r3, [r7, #4]
 80030d6:	2204      	movs	r2, #4
 80030d8:	0018      	movs	r0, r3
 80030da:	f7fe fccb 	bl	8001a74 <ScrollLed>
	ScrollLed("love you", 300, sizeof("love you"));
 80030de:	2396      	movs	r3, #150	; 0x96
 80030e0:	0059      	lsls	r1, r3, #1
 80030e2:	4b09      	ldr	r3, [pc, #36]	; (8003108 <loveyou+0x128>)
 80030e4:	2209      	movs	r2, #9
 80030e6:	0018      	movs	r0, r3
 80030e8:	f7fe fcc4 	bl	8001a74 <ScrollLed>
	ScrollLed("you are the best", 300, sizeof("you are the best"));
 80030ec:	2396      	movs	r3, #150	; 0x96
 80030ee:	0059      	lsls	r1, r3, #1
 80030f0:	4b06      	ldr	r3, [pc, #24]	; (800310c <loveyou+0x12c>)
 80030f2:	2211      	movs	r2, #17
 80030f4:	0018      	movs	r0, r3
 80030f6:	f7fe fcbd 	bl	8001a74 <ScrollLed>

}
 80030fa:	46c0      	nop			; (mov r8, r8)
 80030fc:	46bd      	mov	sp, r7
 80030fe:	b002      	add	sp, #8
 8003100:	bd80      	pop	{r7, pc}
 8003102:	46c0      	nop			; (mov r8, r8)
 8003104:	2000006c 	.word	0x2000006c
 8003108:	080033ac 	.word	0x080033ac
 800310c:	080033b8 	.word	0x080033b8

08003110 <welcomeStrip>:

void welcomeStrip(uint8_t * buf) {
 8003110:	b590      	push	{r4, r7, lr}
 8003112:	b087      	sub	sp, #28
 8003114:	af02      	add	r7, sp, #8
 8003116:	6078      	str	r0, [r7, #4]
	for (uint16_t i=0; i<WS_NUMBER; i++) {
 8003118:	230e      	movs	r3, #14
 800311a:	18fb      	adds	r3, r7, r3
 800311c:	2200      	movs	r2, #0
 800311e:	801a      	strh	r2, [r3, #0]
 8003120:	e01b      	b.n	800315a <welcomeStrip+0x4a>
		FillLEDSegment(buf, i, i, 30, 30, 0);
 8003122:	240e      	movs	r4, #14
 8003124:	193b      	adds	r3, r7, r4
 8003126:	881b      	ldrh	r3, [r3, #0]
 8003128:	b2d9      	uxtb	r1, r3
 800312a:	193b      	adds	r3, r7, r4
 800312c:	881b      	ldrh	r3, [r3, #0]
 800312e:	b2da      	uxtb	r2, r3
 8003130:	6878      	ldr	r0, [r7, #4]
 8003132:	2300      	movs	r3, #0
 8003134:	9301      	str	r3, [sp, #4]
 8003136:	231e      	movs	r3, #30
 8003138:	9300      	str	r3, [sp, #0]
 800313a:	231e      	movs	r3, #30
 800313c:	f7ff fbbe 	bl	80028bc <FillLEDSegment>
		SPI_SEND_WSBUF(buf, sizeof(buf));
 8003140:	687b      	ldr	r3, [r7, #4]
 8003142:	2104      	movs	r1, #4
 8003144:	0018      	movs	r0, r3
 8003146:	f7ff fcf5 	bl	8002b34 <SPI_SEND_WSBUF>
		delay_ms(20);
 800314a:	2014      	movs	r0, #20
 800314c:	f7fe f9e8 	bl	8001520 <delay_ms>
	for (uint16_t i=0; i<WS_NUMBER; i++) {
 8003150:	193b      	adds	r3, r7, r4
 8003152:	881a      	ldrh	r2, [r3, #0]
 8003154:	193b      	adds	r3, r7, r4
 8003156:	3201      	adds	r2, #1
 8003158:	801a      	strh	r2, [r3, #0]
 800315a:	230e      	movs	r3, #14
 800315c:	18fb      	adds	r3, r7, r3
 800315e:	881b      	ldrh	r3, [r3, #0]
 8003160:	2b35      	cmp	r3, #53	; 0x35
 8003162:	d9de      	bls.n	8003122 <welcomeStrip+0x12>
	}
	for (uint16_t i=0; i<WS_NUMBER; i++) {
 8003164:	230c      	movs	r3, #12
 8003166:	18fb      	adds	r3, r7, r3
 8003168:	2200      	movs	r2, #0
 800316a:	801a      	strh	r2, [r3, #0]
 800316c:	e01b      	b.n	80031a6 <welcomeStrip+0x96>
		FillLEDSegment(buf, i, i, 30, 0, 30);
 800316e:	240c      	movs	r4, #12
 8003170:	193b      	adds	r3, r7, r4
 8003172:	881b      	ldrh	r3, [r3, #0]
 8003174:	b2d9      	uxtb	r1, r3
 8003176:	193b      	adds	r3, r7, r4
 8003178:	881b      	ldrh	r3, [r3, #0]
 800317a:	b2da      	uxtb	r2, r3
 800317c:	6878      	ldr	r0, [r7, #4]
 800317e:	231e      	movs	r3, #30
 8003180:	9301      	str	r3, [sp, #4]
 8003182:	2300      	movs	r3, #0
 8003184:	9300      	str	r3, [sp, #0]
 8003186:	231e      	movs	r3, #30
 8003188:	f7ff fb98 	bl	80028bc <FillLEDSegment>
		SPI_SEND_WSBUF(buf, sizeof(buf));
 800318c:	687b      	ldr	r3, [r7, #4]
 800318e:	2104      	movs	r1, #4
 8003190:	0018      	movs	r0, r3
 8003192:	f7ff fccf 	bl	8002b34 <SPI_SEND_WSBUF>
		delay_ms(20);
 8003196:	2014      	movs	r0, #20
 8003198:	f7fe f9c2 	bl	8001520 <delay_ms>
	for (uint16_t i=0; i<WS_NUMBER; i++) {
 800319c:	193b      	adds	r3, r7, r4
 800319e:	881a      	ldrh	r2, [r3, #0]
 80031a0:	193b      	adds	r3, r7, r4
 80031a2:	3201      	adds	r2, #1
 80031a4:	801a      	strh	r2, [r3, #0]
 80031a6:	230c      	movs	r3, #12
 80031a8:	18fb      	adds	r3, r7, r3
 80031aa:	881b      	ldrh	r3, [r3, #0]
 80031ac:	2b35      	cmp	r3, #53	; 0x35
 80031ae:	d9de      	bls.n	800316e <welcomeStrip+0x5e>
	}
	for (uint16_t i=0; i<WS_NUMBER; i++) {
 80031b0:	230a      	movs	r3, #10
 80031b2:	18fb      	adds	r3, r7, r3
 80031b4:	2200      	movs	r2, #0
 80031b6:	801a      	strh	r2, [r3, #0]
 80031b8:	e01b      	b.n	80031f2 <welcomeStrip+0xe2>
		FillLEDSegment(buf, i, i, 0, 30, 30);
 80031ba:	240a      	movs	r4, #10
 80031bc:	193b      	adds	r3, r7, r4
 80031be:	881b      	ldrh	r3, [r3, #0]
 80031c0:	b2d9      	uxtb	r1, r3
 80031c2:	193b      	adds	r3, r7, r4
 80031c4:	881b      	ldrh	r3, [r3, #0]
 80031c6:	b2da      	uxtb	r2, r3
 80031c8:	6878      	ldr	r0, [r7, #4]
 80031ca:	231e      	movs	r3, #30
 80031cc:	9301      	str	r3, [sp, #4]
 80031ce:	231e      	movs	r3, #30
 80031d0:	9300      	str	r3, [sp, #0]
 80031d2:	2300      	movs	r3, #0
 80031d4:	f7ff fb72 	bl	80028bc <FillLEDSegment>
		SPI_SEND_WSBUF(buf, sizeof(buf));
 80031d8:	687b      	ldr	r3, [r7, #4]
 80031da:	2104      	movs	r1, #4
 80031dc:	0018      	movs	r0, r3
 80031de:	f7ff fca9 	bl	8002b34 <SPI_SEND_WSBUF>
		delay_ms(20);
 80031e2:	2014      	movs	r0, #20
 80031e4:	f7fe f99c 	bl	8001520 <delay_ms>
	for (uint16_t i=0; i<WS_NUMBER; i++) {
 80031e8:	193b      	adds	r3, r7, r4
 80031ea:	881a      	ldrh	r2, [r3, #0]
 80031ec:	193b      	adds	r3, r7, r4
 80031ee:	3201      	adds	r2, #1
 80031f0:	801a      	strh	r2, [r3, #0]
 80031f2:	230a      	movs	r3, #10
 80031f4:	18fb      	adds	r3, r7, r3
 80031f6:	881b      	ldrh	r3, [r3, #0]
 80031f8:	2b35      	cmp	r3, #53	; 0x35
 80031fa:	d9de      	bls.n	80031ba <welcomeStrip+0xaa>
	}
	for (uint16_t i=0; i<WS_NUMBER; i++) {
 80031fc:	2308      	movs	r3, #8
 80031fe:	18fb      	adds	r3, r7, r3
 8003200:	2200      	movs	r2, #0
 8003202:	801a      	strh	r2, [r3, #0]
 8003204:	e01b      	b.n	800323e <welcomeStrip+0x12e>
		FillLEDSegment(buf, i, i, 0, 0, 0);
 8003206:	2408      	movs	r4, #8
 8003208:	193b      	adds	r3, r7, r4
 800320a:	881b      	ldrh	r3, [r3, #0]
 800320c:	b2d9      	uxtb	r1, r3
 800320e:	193b      	adds	r3, r7, r4
 8003210:	881b      	ldrh	r3, [r3, #0]
 8003212:	b2da      	uxtb	r2, r3
 8003214:	6878      	ldr	r0, [r7, #4]
 8003216:	2300      	movs	r3, #0
 8003218:	9301      	str	r3, [sp, #4]
 800321a:	2300      	movs	r3, #0
 800321c:	9300      	str	r3, [sp, #0]
 800321e:	2300      	movs	r3, #0
 8003220:	f7ff fb4c 	bl	80028bc <FillLEDSegment>
		SPI_SEND_WSBUF(buf, sizeof(buf));
 8003224:	687b      	ldr	r3, [r7, #4]
 8003226:	2104      	movs	r1, #4
 8003228:	0018      	movs	r0, r3
 800322a:	f7ff fc83 	bl	8002b34 <SPI_SEND_WSBUF>
		delay_ms(20);
 800322e:	2014      	movs	r0, #20
 8003230:	f7fe f976 	bl	8001520 <delay_ms>
	for (uint16_t i=0; i<WS_NUMBER; i++) {
 8003234:	193b      	adds	r3, r7, r4
 8003236:	881a      	ldrh	r2, [r3, #0]
 8003238:	193b      	adds	r3, r7, r4
 800323a:	3201      	adds	r2, #1
 800323c:	801a      	strh	r2, [r3, #0]
 800323e:	2308      	movs	r3, #8
 8003240:	18fb      	adds	r3, r7, r3
 8003242:	881b      	ldrh	r3, [r3, #0]
 8003244:	2b35      	cmp	r3, #53	; 0x35
 8003246:	d9de      	bls.n	8003206 <welcomeStrip+0xf6>
	}


}
 8003248:	46c0      	nop			; (mov r8, r8)
 800324a:	46bd      	mov	sp, r7
 800324c:	b005      	add	sp, #20
 800324e:	bd90      	pop	{r4, r7, pc}

08003250 <ADC1_COMP_IRQHandler>:

// LED brightness ADC measurement
__attribute__((interrupt)) void ADC1_COMP_IRQHandler(void)	{
 8003250:	b580      	push	{r7, lr}
 8003252:	af00      	add	r7, sp, #0
	ADC1->ISR |= ADC_ISR_EOC;	// Clear end of conversion flag
 8003254:	4b0b      	ldr	r3, [pc, #44]	; (8003284 <ADC1_COMP_IRQHandler+0x34>)
 8003256:	681a      	ldr	r2, [r3, #0]
 8003258:	4b0a      	ldr	r3, [pc, #40]	; (8003284 <ADC1_COMP_IRQHandler+0x34>)
 800325a:	2104      	movs	r1, #4
 800325c:	430a      	orrs	r2, r1
 800325e:	601a      	str	r2, [r3, #0]
	ADC_result = ADC1->DR;
 8003260:	4b08      	ldr	r3, [pc, #32]	; (8003284 <ADC1_COMP_IRQHandler+0x34>)
 8003262:	6c1b      	ldr	r3, [r3, #64]	; 0x40
 8003264:	b29a      	uxth	r2, r3
 8003266:	4b08      	ldr	r3, [pc, #32]	; (8003288 <ADC1_COMP_IRQHandler+0x38>)
 8003268:	801a      	strh	r2, [r3, #0]
	brg_div = ADCCompress(ADC_result);
 800326a:	4b07      	ldr	r3, [pc, #28]	; (8003288 <ADC1_COMP_IRQHandler+0x38>)
 800326c:	881b      	ldrh	r3, [r3, #0]
 800326e:	b29b      	uxth	r3, r3
 8003270:	0018      	movs	r0, r3
 8003272:	f7ff fe25 	bl	8002ec0 <ADCCompress>
 8003276:	0003      	movs	r3, r0
 8003278:	001a      	movs	r2, r3
 800327a:	4b04      	ldr	r3, [pc, #16]	; (800328c <ADC1_COMP_IRQHandler+0x3c>)
 800327c:	701a      	strb	r2, [r3, #0]

}
 800327e:	46c0      	nop			; (mov r8, r8)
 8003280:	46bd      	mov	sp, r7
 8003282:	bd80      	pop	{r7, pc}
 8003284:	40012400 	.word	0x40012400
 8003288:	20000590 	.word	0x20000590
 800328c:	20000024 	.word	0x20000024

08003290 <Reset_Handler>:

  .section .text.Reset_Handler
  .weak Reset_Handler
  .type Reset_Handler, %function
Reset_Handler:
  ldr   r0, =_estack
 8003290:	480d      	ldr	r0, [pc, #52]	; (80032c8 <LoopForever+0x2>)
  mov   sp, r0          /* set stack pointer */
 8003292:	4685      	mov	sp, r0

/* Copy the data segment initializers from flash to SRAM */
  movs r1, #0
 8003294:	2100      	movs	r1, #0
  b LoopCopyDataInit
 8003296:	e003      	b.n	80032a0 <LoopCopyDataInit>

08003298 <CopyDataInit>:

CopyDataInit:
  ldr r3, =_sidata
 8003298:	4b0c      	ldr	r3, [pc, #48]	; (80032cc <LoopForever+0x6>)
  ldr r3, [r3, r1]
 800329a:	585b      	ldr	r3, [r3, r1]
  str r3, [r0, r1]
 800329c:	5043      	str	r3, [r0, r1]
  adds r1, r1, #4
 800329e:	3104      	adds	r1, #4

080032a0 <LoopCopyDataInit>:

LoopCopyDataInit:
  ldr r0, =_sdata
 80032a0:	480b      	ldr	r0, [pc, #44]	; (80032d0 <LoopForever+0xa>)
  ldr r3, =_edata
 80032a2:	4b0c      	ldr	r3, [pc, #48]	; (80032d4 <LoopForever+0xe>)
  adds r2, r0, r1
 80032a4:	1842      	adds	r2, r0, r1
  cmp r2, r3
 80032a6:	429a      	cmp	r2, r3
  bcc CopyDataInit
 80032a8:	d3f6      	bcc.n	8003298 <CopyDataInit>
  ldr r2, =_sbss
 80032aa:	4a0b      	ldr	r2, [pc, #44]	; (80032d8 <LoopForever+0x12>)
  b LoopFillZerobss
 80032ac:	e002      	b.n	80032b4 <LoopFillZerobss>

080032ae <FillZerobss>:
/* Zero fill the bss segment. */
FillZerobss:
  movs r3, #0
 80032ae:	2300      	movs	r3, #0
  str  r3, [r2]
 80032b0:	6013      	str	r3, [r2, #0]
  adds r2, r2, #4
 80032b2:	3204      	adds	r2, #4

080032b4 <LoopFillZerobss>:


LoopFillZerobss:
  ldr r3, = _ebss
 80032b4:	4b09      	ldr	r3, [pc, #36]	; (80032dc <LoopForever+0x16>)
  cmp r2, r3
 80032b6:	429a      	cmp	r2, r3
  bcc FillZerobss
 80032b8:	d3f9      	bcc.n	80032ae <FillZerobss>

/* Call the clock system intitialization function.*/
  bl  SystemInit
 80032ba:	f7ff f81b 	bl	80022f4 <SystemInit>
/* Call static constructors */
  bl __libc_init_array
 80032be:	f000 f811 	bl	80032e4 <__libc_init_array>
/* Call the application's entry point.*/
  bl main
 80032c2:	f7fe f9cb 	bl	800165c <main>

080032c6 <LoopForever>:

LoopForever:
    b LoopForever
 80032c6:	e7fe      	b.n	80032c6 <LoopForever>
  ldr   r0, =_estack
 80032c8:	20009000 	.word	0x20009000
  ldr r3, =_sidata
 80032cc:	08003414 	.word	0x08003414
  ldr r0, =_sdata
 80032d0:	20000000 	.word	0x20000000
  ldr r3, =_edata
 80032d4:	20000028 	.word	0x20000028
  ldr r2, =_sbss
 80032d8:	20000028 	.word	0x20000028
  ldr r3, = _ebss
 80032dc:	200005b4 	.word	0x200005b4

080032e0 <CEC_IRQHandler>:
 * @retval : None
*/
    .section .text.Default_Handler,"ax",%progbits
Default_Handler:
Infinite_Loop:
  b Infinite_Loop
 80032e0:	e7fe      	b.n	80032e0 <CEC_IRQHandler>
	...

080032e4 <__libc_init_array>:
 80032e4:	b570      	push	{r4, r5, r6, lr}
 80032e6:	2600      	movs	r6, #0
 80032e8:	4d0c      	ldr	r5, [pc, #48]	; (800331c <__libc_init_array+0x38>)
 80032ea:	4c0d      	ldr	r4, [pc, #52]	; (8003320 <__libc_init_array+0x3c>)
 80032ec:	1b64      	subs	r4, r4, r5
 80032ee:	10a4      	asrs	r4, r4, #2
 80032f0:	42a6      	cmp	r6, r4
 80032f2:	d109      	bne.n	8003308 <__libc_init_array+0x24>
 80032f4:	2600      	movs	r6, #0
 80032f6:	f000 f821 	bl	800333c <_init>
 80032fa:	4d0a      	ldr	r5, [pc, #40]	; (8003324 <__libc_init_array+0x40>)
 80032fc:	4c0a      	ldr	r4, [pc, #40]	; (8003328 <__libc_init_array+0x44>)
 80032fe:	1b64      	subs	r4, r4, r5
 8003300:	10a4      	asrs	r4, r4, #2
 8003302:	42a6      	cmp	r6, r4
 8003304:	d105      	bne.n	8003312 <__libc_init_array+0x2e>
 8003306:	bd70      	pop	{r4, r5, r6, pc}
 8003308:	00b3      	lsls	r3, r6, #2
 800330a:	58eb      	ldr	r3, [r5, r3]
 800330c:	4798      	blx	r3
 800330e:	3601      	adds	r6, #1
 8003310:	e7ee      	b.n	80032f0 <__libc_init_array+0xc>
 8003312:	00b3      	lsls	r3, r6, #2
 8003314:	58eb      	ldr	r3, [r5, r3]
 8003316:	4798      	blx	r3
 8003318:	3601      	adds	r6, #1
 800331a:	e7f2      	b.n	8003302 <__libc_init_array+0x1e>
 800331c:	0800340c 	.word	0x0800340c
 8003320:	0800340c 	.word	0x0800340c
 8003324:	0800340c 	.word	0x0800340c
 8003328:	08003410 	.word	0x08003410

0800332c <memset>:
 800332c:	0003      	movs	r3, r0
 800332e:	1812      	adds	r2, r2, r0
 8003330:	4293      	cmp	r3, r2
 8003332:	d100      	bne.n	8003336 <memset+0xa>
 8003334:	4770      	bx	lr
 8003336:	7019      	strb	r1, [r3, #0]
 8003338:	3301      	adds	r3, #1
 800333a:	e7f9      	b.n	8003330 <memset+0x4>

0800333c <_init>:
 800333c:	b5f8      	push	{r3, r4, r5, r6, r7, lr}
 800333e:	46c0      	nop			; (mov r8, r8)
 8003340:	bcf8      	pop	{r3, r4, r5, r6, r7}
 8003342:	bc08      	pop	{r3}
 8003344:	469e      	mov	lr, r3
 8003346:	4770      	bx	lr

08003348 <_fini>:
 8003348:	b5f8      	push	{r3, r4, r5, r6, r7, lr}
 800334a:	46c0      	nop			; (mov r8, r8)
 800334c:	bcf8      	pop	{r3, r4, r5, r6, r7}
 800334e:	bc08      	pop	{r3}
 8003350:	469e      	mov	lr, r3
 8003352:	4770      	bx	lr
